---
triple:          'x86_64-apple-darwin'
binary-path:     '/Users/paulgrey/Library/Developer/Xcode/DerivedData/PulseWallet-dstctvseqxzcuahdfdqfcgscqqus/Build/Intermediates.noindex/ArchiveIntermediates/PulseWallet/InstallationBuildProductsLocation/Applications/PulseVM.app/Contents/MacOS/PulseVM'
relocations:
  - { offset: 0x14E252, size: 0x8, addend: 0x0, symName: __RINvMNtNtCs8Tvwocrg46H_4core4cell4onceINtB3_8OnceCellINtNtB7_6result6ResultINtNtB7_6option6OptionINtNtCsdN4uhhpLgdG_5alloc5boxed3BoxINtNtCslX2FC3NAmjD_9addr2line4unit7DwoUnitINtNtNtCsLPpGTdLkDi_5gimli4read12endian_slice11EndianSliceNtNtB2T_9endianity12LittleEndianEEEENtB2R_5ErrorEE8try_initNCINvB2_11get_or_initNCNCNvMB29_INtB29_7ResUnitB2M_E14dwarf_and_units4_00E0zECsfJuDB63p7eE_3std, symObjAddr: 0x0, symBinAddr: 0x1001773B0, symSize: 0x40 }
  - { offset: 0x14EB36, size: 0x8, addend: 0x0, symName: __RINvMNtNtCs8Tvwocrg46H_4core4cell4onceINtB3_8OnceCellINtNtB7_6result6ResultINtNtB7_6option6OptionINtNtCsdN4uhhpLgdG_5alloc5boxed3BoxINtNtCslX2FC3NAmjD_9addr2line4unit7DwoUnitINtNtNtCsLPpGTdLkDi_5gimli4read12endian_slice11EndianSliceNtNtB2T_9endianity12LittleEndianEEEENtB2R_5ErrorEE8try_initNCINvB2_11get_or_initNCNCNvMB29_INtB29_7ResUnitB2M_E14dwarf_and_units4_00E0zECsfJuDB63p7eE_3std, symObjAddr: 0x0, symBinAddr: 0x1001773B0, symSize: 0x40 }
  - { offset: 0x14EB55, size: 0x8, addend: 0x0, symName: __RINvMNtNtCs8Tvwocrg46H_4core4cell4onceINtB3_8OnceCellINtNtB7_6result6ResultINtNtB7_6option6OptionINtNtCsdN4uhhpLgdG_5alloc5boxed3BoxINtNtCslX2FC3NAmjD_9addr2line4unit7DwoUnitINtNtNtCsLPpGTdLkDi_5gimli4read12endian_slice11EndianSliceNtNtB2T_9endianity12LittleEndianEEEENtB2R_5ErrorEE8try_initNCINvB2_11get_or_initNCNCNvMB29_INtB29_7ResUnitB2M_E14dwarf_and_units4_00E0zECsfJuDB63p7eE_3std, symObjAddr: 0x0, symBinAddr: 0x1001773B0, symSize: 0x40 }
  - { offset: 0x14EB6B, size: 0x8, addend: 0x0, symName: __RINvMNtNtCs8Tvwocrg46H_4core4cell4onceINtB3_8OnceCellINtNtB7_6result6ResultINtNtB7_6option6OptionINtNtCsdN4uhhpLgdG_5alloc5boxed3BoxINtNtCslX2FC3NAmjD_9addr2line4unit7DwoUnitINtNtNtCsLPpGTdLkDi_5gimli4read12endian_slice11EndianSliceNtNtB2T_9endianity12LittleEndianEEEENtB2R_5ErrorEE8try_initNCINvB2_11get_or_initNCNCNvMB29_INtB29_7ResUnitB2M_E14dwarf_and_units4_00E0zECsfJuDB63p7eE_3std, symObjAddr: 0x0, symBinAddr: 0x1001773B0, symSize: 0x40 }
  - { offset: 0x14EB80, size: 0x8, addend: 0x0, symName: __RINvMNtNtCs8Tvwocrg46H_4core4cell4onceINtB3_8OnceCellINtNtB7_6result6ResultINtNtB7_6option6OptionINtNtCsdN4uhhpLgdG_5alloc5boxed3BoxINtNtCslX2FC3NAmjD_9addr2line4unit7DwoUnitINtNtNtCsLPpGTdLkDi_5gimli4read12endian_slice11EndianSliceNtNtB2T_9endianity12LittleEndianEEEENtB2R_5ErrorEE8try_initNCINvB2_11get_or_initNCNCNvMB29_INtB29_7ResUnitB2M_E14dwarf_and_units4_00E0zECsfJuDB63p7eE_3std, symObjAddr: 0x0, symBinAddr: 0x1001773B0, symSize: 0x40 }
  - { offset: 0x14EBC3, size: 0x8, addend: 0x0, symName: __RINvMNtNtCs8Tvwocrg46H_4core4cell4onceINtB3_8OnceCellINtNtB7_6result6ResultINtNtB7_6option6OptionINtNtCsdN4uhhpLgdG_5alloc5boxed3BoxINtNtCslX2FC3NAmjD_9addr2line4unit7DwoUnitINtNtNtCsLPpGTdLkDi_5gimli4read12endian_slice11EndianSliceNtNtB2T_9endianity12LittleEndianEEEENtB2R_5ErrorEE8try_initNCINvB2_11get_or_initNCNvMB29_INtB29_7ResUnitB2M_E14dwarf_and_units2_0E0zECsfJuDB63p7eE_3std, symObjAddr: 0x40, symBinAddr: 0x1001773F0, symSize: 0x60 }
  - { offset: 0x14EC66, size: 0x8, addend: 0x0, symName: __RINvMNtNtCs8Tvwocrg46H_4core4cell4onceINtB3_8OnceCellINtNtB7_6result6ResultINtNtCslX2FC3NAmjD_9addr2line8function8FunctionINtNtNtCsLPpGTdLkDi_5gimli4read12endian_slice11EndianSliceNtNtB23_9endianity12LittleEndianEENtB21_5ErrorEE8try_initNCINvB2_11get_or_initNCNvMs_B1e_INtB1e_12LazyFunctionB1W_E6borrow0E0zECsfJuDB63p7eE_3std, symObjAddr: 0xA0, symBinAddr: 0x100177450, symSize: 0x860 }
  - { offset: 0x14FA9A, size: 0x8, addend: 0x0, symName: __RINvMNtNtCs8Tvwocrg46H_4core4cell4onceINtB3_8OnceCellINtNtB7_6result6ResultINtNtCslX2FC3NAmjD_9addr2line8function9FunctionsINtNtNtCsLPpGTdLkDi_5gimli4read12endian_slice11EndianSliceNtNtB24_9endianity12LittleEndianEENtB22_5ErrorEE8try_initNCINvB2_11get_or_initNCNvMB1e_INtB1e_13LazyFunctionsB1X_E6borrow0E0zECsfJuDB63p7eE_3std, symObjAddr: 0x900, symBinAddr: 0x100177CB0, symSize: 0xED0 }
  - { offset: 0x1515B4, size: 0x8, addend: 0x0, symName: __RINvMNtNtCs8Tvwocrg46H_4core4cell4onceINtB3_8OnceCellINtNtB7_6result6ResultNtNtCslX2FC3NAmjD_9addr2line4line5LinesNtNtCsLPpGTdLkDi_5gimli4read5ErrorEE8try_initNCINvB2_11get_or_initNCINvMB1d_NtB1d_9LazyLines6borrowINtNtB1Q_12endian_slice11EndianSliceNtNtB1S_9endianity12LittleEndianEE0E0zECsfJuDB63p7eE_3std, symObjAddr: 0x17D0, symBinAddr: 0x100178B80, symSize: 0x20D0 }
  - { offset: 0x1551B4, size: 0x8, addend: 0x0, symName: __RINvMNtNtCs8Tvwocrg46H_4core4cell4onceINtB3_8OnceCellNtNtNtCsfJuDB63p7eE_3std6thread6thread6ThreadE8try_initNCINvB2_11get_or_initNvNtBT_7current18current_or_unnamedE0zEBV_, symObjAddr: 0x38A0, symBinAddr: 0x10017AC50, symSize: 0xE0 }
  - { offset: 0x155863, size: 0x8, addend: 0x0, symName: __RNSNvYNCNCNvNtNtCsfJuDB63p7eE_3std3sys9backtrace10__print_fmts_00INtNtNtCs8Tvwocrg46H_4core3ops8function6FnOnceTRNtNtNtBe_12backtrace_rs9symbolize6SymbolEE9call_once6vtableBe_, symObjAddr: 0x1B850, symBinAddr: 0x100150040, symSize: 0x10 }
  - { offset: 0x1558A0, size: 0x8, addend: 0x0, symName: __RNSNvYNCNvNtNtCsfJuDB63p7eE_3std3sys9backtrace10__print_fmt0INtNtNtCs8Tvwocrg46H_4core3ops8function6FnOnceTQNtNtB13_3fmt9FormatterNtNtNtBc_12backtrace_rs5types17BytesOrWideStringEE9call_once6vtableBc_, symObjAddr: 0x1B890, symBinAddr: 0x100150050, symSize: 0xA0 }
  - { offset: 0x155B41, size: 0x8, addend: 0x0, symName: __RNSNvYNCNvNtNtCsfJuDB63p7eE_3std3sys9backtrace10__print_fmts_0INtNtNtCs8Tvwocrg46H_4core3ops8function6FnOnceTRNtNtNtBc_12backtrace_rs9backtrace5FrameEE9call_once6vtableBc_, symObjAddr: 0x1B930, symBinAddr: 0x1001500F0, symSize: 0x10 }
  - { offset: 0x155B7E, size: 0x8, addend: 0x0, symName: __RNSNvYNCNvNtNtNtCsfJuDB63p7eE_3std3sys11personality3gcc14find_eh_action0INtNtNtCs8Tvwocrg46H_4core3ops8function6FnOnceuE9call_once6vtableBe_, symObjAddr: 0x1B940, symBinAddr: 0x100150100, symSize: 0x10 }
  - { offset: 0x155BD1, size: 0x8, addend: 0x0, symName: __RNSNvYNCNvNtNtNtCsfJuDB63p7eE_3std3sys11personality3gcc14find_eh_actions_0INtNtNtCs8Tvwocrg46H_4core3ops8function6FnOnceuE9call_once6vtableBe_, symObjAddr: 0x1B950, symBinAddr: 0x100150110, symSize: 0x10 }
  - { offset: 0x157945, size: 0x8, addend: 0x0, symName: __RINvNtNtNtCs8Tvwocrg46H_4core5slice4sort6stable14driftsort_mainNtNtCs8g0Wyh6G27a_6object4read14ObjectMapEntryNCINvMNtCsdN4uhhpLgdG_5alloc5sliceSBZ_11sort_by_keyyNCNvMs7_B11_INtB11_9SymbolMapBZ_E3new0E0INtNtB1R_3vec3VecBZ_EECsfJuDB63p7eE_3std, symObjAddr: 0xDEC0, symBinAddr: 0x100144D60, symSize: 0x150 }
  - { offset: 0x157CA6, size: 0x8, addend: 0x0, symName: __RINvNtNtNtCs8Tvwocrg46H_4core5slice4sort6stable14driftsort_mainNtNtCslX2FC3NAmjD_9addr2line4line12LineSequenceNCINvMNtCsdN4uhhpLgdG_5alloc5sliceSBZ_11sort_by_keyyNCINvMs_B11_NtB11_5Lines5parseINtNtNtCsLPpGTdLkDi_5gimli4read12endian_slice11EndianSliceNtNtB3b_9endianity12LittleEndianEEs_0E0INtNtB1S_3vec3VecBZ_EECsfJuDB63p7eE_3std, symObjAddr: 0xE010, symBinAddr: 0x100144EB0, symSize: 0x150 }
  - { offset: 0x157F4A, size: 0x8, addend: 0x0, symName: __RINvNtNtNtCs8Tvwocrg46H_4core5slice4sort6stable14driftsort_mainNtNtCslX2FC3NAmjD_9addr2line4unit9UnitRangeNCINvMNtCsdN4uhhpLgdG_5alloc5sliceSBZ_11sort_by_keyyNCNvMs_B11_INtB11_8ResUnitsINtNtNtCsLPpGTdLkDi_5gimli4read12endian_slice11EndianSliceNtNtB34_9endianity12LittleEndianEE5parses2_0E0INtNtB1O_3vec3VecBZ_EECsfJuDB63p7eE_3std, symObjAddr: 0xE160, symBinAddr: 0x100145000, symSize: 0x140 }
  - { offset: 0x1582F8, size: 0x8, addend: 0x0, symName: __RINvNtNtNtCs8Tvwocrg46H_4core5slice4sort6stable14driftsort_mainNtNtCslX2FC3NAmjD_9addr2line8function15FunctionAddressNCINvMNtCsdN4uhhpLgdG_5alloc5sliceSBZ_11sort_by_keyyNCNvMs0_B11_INtB11_9FunctionsINtNtNtCsLPpGTdLkDi_5gimli4read12endian_slice11EndianSliceNtNtB3h_9endianity12LittleEndianEE5parses_0E0INtNtB1Z_3vec3VecBZ_EECsfJuDB63p7eE_3std, symObjAddr: 0xE2A0, symBinAddr: 0x100145140, symSize: 0x150 }
  - { offset: 0x158659, size: 0x8, addend: 0x0, symName: __RINvNtNtNtCs8Tvwocrg46H_4core5slice4sort6stable14driftsort_mainNtNtCslX2FC3NAmjD_9addr2line8function22InlinedFunctionAddressNCINvMNtCsdN4uhhpLgdG_5alloc5sliceSBZ_7sort_byNCNvMs1_B11_INtB11_8FunctionINtNtNtCsLPpGTdLkDi_5gimli4read12endian_slice11EndianSliceNtNtB3h_9endianity12LittleEndianEE5parse0E0INtNtB26_3vec3VecBZ_EECsfJuDB63p7eE_3std, symObjAddr: 0xE3F0, symBinAddr: 0x100145290, symSize: 0x140 }
  - { offset: 0x158A07, size: 0x8, addend: 0x0, symName: __RINvNtNtNtCs8Tvwocrg46H_4core5slice4sort6stable14driftsort_mainTNtNtCsLPpGTdLkDi_5gimli6common15DebugInfoOffsetNtB12_18DebugArangesOffsetENCINvMNtCsdN4uhhpLgdG_5alloc5sliceSBZ_11sort_by_keyB10_NCNvMs_NtCslX2FC3NAmjD_9addr2line4unitINtB3c_8ResUnitsINtNtNtB14_4read12endian_slice11EndianSliceNtNtB14_9endianity12LittleEndianEE5parse0E0INtNtB2k_3vec3VecBZ_EECsfJuDB63p7eE_3std, symObjAddr: 0xE530, symBinAddr: 0x1001453D0, symSize: 0x140 }
  - { offset: 0x158FA8, size: 0x8, addend: 0x0, symName: __RINvNtNtNtNtCs8Tvwocrg46H_4core5slice4sort6stable5drift4sortNtNtCs8g0Wyh6G27a_6object4read14ObjectMapEntryNCINvMNtCsdN4uhhpLgdG_5alloc5sliceSBW_11sort_by_keyyNCNvMs7_BY_INtBY_9SymbolMapBW_E3new0E0ECsfJuDB63p7eE_3std, symObjAddr: 0x10B90, symBinAddr: 0x1001474B0, symSize: 0x690 }
  - { offset: 0x1596F4, size: 0x8, addend: 0x0, symName: __RINvNtNtNtNtCs8Tvwocrg46H_4core5slice4sort6stable5drift4sortNtNtCslX2FC3NAmjD_9addr2line4line12LineSequenceNCINvMNtCsdN4uhhpLgdG_5alloc5sliceSBW_11sort_by_keyyNCINvMs_BY_NtBY_5Lines5parseINtNtNtCsLPpGTdLkDi_5gimli4read12endian_slice11EndianSliceNtNtB36_9endianity12LittleEndianEEs_0E0ECsfJuDB63p7eE_3std, symObjAddr: 0x11220, symBinAddr: 0x100147B40, symSize: 0x6B0 }
  - { offset: 0x159E50, size: 0x8, addend: 0x0, symName: __RINvNtNtNtNtCs8Tvwocrg46H_4core5slice4sort6stable5drift4sortNtNtCslX2FC3NAmjD_9addr2line4unit9UnitRangeNCINvMNtCsdN4uhhpLgdG_5alloc5sliceSBW_11sort_by_keyyNCNvMs_BY_INtBY_8ResUnitsINtNtNtCsLPpGTdLkDi_5gimli4read12endian_slice11EndianSliceNtNtB2Z_9endianity12LittleEndianEE5parses2_0E0ECsfJuDB63p7eE_3std, symObjAddr: 0x118D0, symBinAddr: 0x1001481F0, symSize: 0x6B0 }
  - { offset: 0x15A5AC, size: 0x8, addend: 0x0, symName: __RINvNtNtNtNtCs8Tvwocrg46H_4core5slice4sort6stable5drift4sortNtNtCslX2FC3NAmjD_9addr2line8function15FunctionAddressNCINvMNtCsdN4uhhpLgdG_5alloc5sliceSBW_11sort_by_keyyNCNvMs0_BY_INtBY_9FunctionsINtNtNtCsLPpGTdLkDi_5gimli4read12endian_slice11EndianSliceNtNtB3c_9endianity12LittleEndianEE5parses_0E0ECsfJuDB63p7eE_3std, symObjAddr: 0x11F80, symBinAddr: 0x1001488A0, symSize: 0x660 }
  - { offset: 0x15ACF8, size: 0x8, addend: 0x0, symName: __RINvNtNtNtNtCs8Tvwocrg46H_4core5slice4sort6stable5drift4sortNtNtCslX2FC3NAmjD_9addr2line8function22InlinedFunctionAddressNCINvMNtCsdN4uhhpLgdG_5alloc5sliceSBW_7sort_byNCNvMs1_BY_INtBY_8FunctionINtNtNtCsLPpGTdLkDi_5gimli4read12endian_slice11EndianSliceNtNtB3c_9endianity12LittleEndianEE5parse0E0ECsfJuDB63p7eE_3std, symObjAddr: 0x125E0, symBinAddr: 0x100148F00, symSize: 0x6E0 }
  - { offset: 0x15B41D, size: 0x8, addend: 0x0, symName: __RINvNtNtNtNtCs8Tvwocrg46H_4core5slice4sort6stable5drift4sortTNtNtCsLPpGTdLkDi_5gimli6common15DebugInfoOffsetNtBZ_18DebugArangesOffsetENCINvMNtCsdN4uhhpLgdG_5alloc5sliceSBW_11sort_by_keyBX_NCNvMs_NtCslX2FC3NAmjD_9addr2line4unitINtB37_8ResUnitsINtNtNtB11_4read12endian_slice11EndianSliceNtNtB11_9endianity12LittleEndianEE5parse0E0ECsfJuDB63p7eE_3std, symObjAddr: 0x12CC0, symBinAddr: 0x1001495E0, symSize: 0x710 }
  - { offset: 0x15BDE9, size: 0x8, addend: 0x0, symName: __RINvNtNtNtNtCs8Tvwocrg46H_4core5slice4sort6stable9quicksort9quicksortNtNtCs8g0Wyh6G27a_6object4read14ObjectMapEntryNCINvMNtCsdN4uhhpLgdG_5alloc5sliceSB15_11sort_by_keyyNCNvMs7_B17_INtB17_9SymbolMapB15_E3new0E0ECsfJuDB63p7eE_3std, symObjAddr: 0x133D0, symBinAddr: 0x100149CF0, symSize: 0xD10 }
  - { offset: 0x15CC2E, size: 0x8, addend: 0x0, symName: __RINvNtNtNtNtCs8Tvwocrg46H_4core5slice4sort6stable9quicksort9quicksortNtNtCslX2FC3NAmjD_9addr2line4line12LineSequenceNCINvMNtCsdN4uhhpLgdG_5alloc5sliceSB15_11sort_by_keyyNCINvMs_B17_NtB17_5Lines5parseINtNtNtCsLPpGTdLkDi_5gimli4read12endian_slice11EndianSliceNtNtB3i_9endianity12LittleEndianEEs_0E0ECsfJuDB63p7eE_3std, symObjAddr: 0x140E0, symBinAddr: 0x10014AA00, symSize: 0xBF0 }
  - { offset: 0x15DA78, size: 0x8, addend: 0x0, symName: __RINvNtNtNtNtCs8Tvwocrg46H_4core5slice4sort6stable9quicksort9quicksortNtNtCslX2FC3NAmjD_9addr2line4unit9UnitRangeNCINvMNtCsdN4uhhpLgdG_5alloc5sliceSB15_11sort_by_keyyNCNvMs_B17_INtB17_8ResUnitsINtNtNtCsLPpGTdLkDi_5gimli4read12endian_slice11EndianSliceNtNtB3b_9endianity12LittleEndianEE5parses2_0E0ECsfJuDB63p7eE_3std, symObjAddr: 0x14CD0, symBinAddr: 0x10014B5F0, symSize: 0xC10 }
  - { offset: 0x15E8B2, size: 0x8, addend: 0x0, symName: __RINvNtNtNtNtCs8Tvwocrg46H_4core5slice4sort6stable9quicksort9quicksortNtNtCslX2FC3NAmjD_9addr2line8function15FunctionAddressNCINvMNtCsdN4uhhpLgdG_5alloc5sliceSB15_11sort_by_keyyNCNvMs0_B17_INtB17_9FunctionsINtNtNtCsLPpGTdLkDi_5gimli4read12endian_slice11EndianSliceNtNtB3o_9endianity12LittleEndianEE5parses_0E0ECsfJuDB63p7eE_3std, symObjAddr: 0x158E0, symBinAddr: 0x10014C200, symSize: 0xAC0 }
  - { offset: 0x15F747, size: 0x8, addend: 0x0, symName: __RINvNtNtNtNtCs8Tvwocrg46H_4core5slice4sort6stable9quicksort9quicksortNtNtCslX2FC3NAmjD_9addr2line8function22InlinedFunctionAddressNCINvMNtCsdN4uhhpLgdG_5alloc5sliceSB15_7sort_byNCNvMs1_B17_INtB17_8FunctionINtNtNtCsLPpGTdLkDi_5gimli4read12endian_slice11EndianSliceNtNtB3o_9endianity12LittleEndianEE5parse0E0ECsfJuDB63p7eE_3std, symObjAddr: 0x163A0, symBinAddr: 0x10014CCC0, symSize: 0xB10 }
  - { offset: 0x1600A7, size: 0x8, addend: 0x0, symName: __RINvNtNtNtNtCs8Tvwocrg46H_4core5slice4sort6stable9quicksort9quicksortTNtNtCsLPpGTdLkDi_5gimli6common15DebugInfoOffsetNtB18_18DebugArangesOffsetENCINvMNtCsdN4uhhpLgdG_5alloc5sliceSB15_11sort_by_keyB16_NCNvMs_NtCslX2FC3NAmjD_9addr2line4unitINtB3j_8ResUnitsINtNtNtB1a_4read12endian_slice11EndianSliceNtNtB1a_9endianity12LittleEndianEE5parse0E0ECsfJuDB63p7eE_3std, symObjAddr: 0x16EB0, symBinAddr: 0x10014D7D0, symSize: 0xB80 }
  - { offset: 0x161648, size: 0x8, addend: 0x0, symName: __RINvNtNtNtNtCs8Tvwocrg46H_4core5slice4sort6shared9smallsort12sort4_stableNtNtCslX2FC3NAmjD_9addr2line8function22InlinedFunctionAddressNCINvMNtCsdN4uhhpLgdG_5alloc5sliceSB19_7sort_byNCNvMs1_B1b_INtB1b_8FunctionINtNtNtCsLPpGTdLkDi_5gimli4read12endian_slice11EndianSliceNtNtB3s_9endianity12LittleEndianEE5parse0E0ECsfJuDB63p7eE_3std, symObjAddr: 0xF560, symBinAddr: 0x100145E80, symSize: 0x1B0 }
  - { offset: 0x161830, size: 0x8, addend: 0x0, symName: __RINvNtNtNtNtCs8Tvwocrg46H_4core5slice4sort6shared9smallsort12sort4_stableTRShyENCINvMB8_SB19_20sort_unstable_by_keyB1a_NCNvMs_NtNtNtNtCsfJuDB63p7eE_3std12backtrace_rs9symbolize5gimli5machoNtB20_6Object5parses_0E0EB28_, symObjAddr: 0xF710, symBinAddr: 0x100146030, symSize: 0x1E0 }
  - { offset: 0x161C3F, size: 0x8, addend: 0x0, symName: __RINvNtNtNtNtCs8Tvwocrg46H_4core5slice4sort6shared9smallsort12sort8_stableTNtNtCsLPpGTdLkDi_5gimli6common15DebugInfoOffsetNtB1c_18DebugArangesOffsetENCINvMNtCsdN4uhhpLgdG_5alloc5sliceSB19_11sort_by_keyB1a_NCNvMs_NtCslX2FC3NAmjD_9addr2line4unitINtB3n_8ResUnitsINtNtNtB1e_4read12endian_slice11EndianSliceNtNtB1e_9endianity12LittleEndianEE5parse0E0ECsfJuDB63p7eE_3std, symObjAddr: 0xF8F0, symBinAddr: 0x100146210, symSize: 0x3E0 }
  - { offset: 0x16236F, size: 0x8, addend: 0x0, symName: __RINvNtNtNtNtCs8Tvwocrg46H_4core5slice4sort6shared9smallsort18small_sort_generalTRShyENCINvMB8_SB1f_20sort_unstable_by_keyB1g_NCNvMs_NtNtNtNtCsfJuDB63p7eE_3std12backtrace_rs9symbolize5gimli5machoNtB26_6Object5parses_0E0EB2e_, symObjAddr: 0xFCD0, symBinAddr: 0x1001465F0, symSize: 0x510 }
  - { offset: 0x16291C, size: 0x8, addend: 0x0, symName: __RINvNtNtNtNtCs8Tvwocrg46H_4core5slice4sort6shared9smallsort18small_sort_generalTRShyENCINvMB8_SB1f_20sort_unstable_by_keyyNCNvMs_NtNtNtNtCsfJuDB63p7eE_3std12backtrace_rs9symbolize5gimli5machoNtB23_6Object5parses0_0E0EB2b_, symObjAddr: 0x101E0, symBinAddr: 0x100146B00, symSize: 0x5F0 }
  - { offset: 0x1631D0, size: 0x8, addend: 0x0, symName: __RINvNtNtNtNtCs8Tvwocrg46H_4core5slice4sort6shared9smallsort25insertion_sort_shift_leftNtNtCs8g0Wyh6G27a_6object4read14ObjectMapEntryNCINvMNtCsdN4uhhpLgdG_5alloc5sliceSB1m_11sort_by_keyyNCNvMs7_B1o_INtB1o_9SymbolMapB1m_E3new0E0ECsfJuDB63p7eE_3std, symObjAddr: 0x107D0, symBinAddr: 0x1001470F0, symSize: 0xF0 }
  - { offset: 0x16330B, size: 0x8, addend: 0x0, symName: __RINvNtNtNtNtCs8Tvwocrg46H_4core5slice4sort6shared9smallsort25insertion_sort_shift_leftNtNtCslX2FC3NAmjD_9addr2line4line12LineSequenceNCINvMNtCsdN4uhhpLgdG_5alloc5sliceSB1m_11sort_by_keyyNCINvMs_B1o_NtB1o_5Lines5parseINtNtNtCsLPpGTdLkDi_5gimli4read12endian_slice11EndianSliceNtNtB3z_9endianity12LittleEndianEEs_0E0ECsfJuDB63p7eE_3std, symObjAddr: 0x108C0, symBinAddr: 0x1001471E0, symSize: 0xC0 }
  - { offset: 0x163446, size: 0x8, addend: 0x0, symName: __RINvNtNtNtNtCs8Tvwocrg46H_4core5slice4sort6shared9smallsort25insertion_sort_shift_leftNtNtCslX2FC3NAmjD_9addr2line8function22InlinedFunctionAddressNCINvMNtCsdN4uhhpLgdG_5alloc5sliceSB1m_7sort_byNCNvMs1_B1o_INtB1o_8FunctionINtNtNtCsLPpGTdLkDi_5gimli4read12endian_slice11EndianSliceNtNtB3F_9endianity12LittleEndianEE5parse0E0ECsfJuDB63p7eE_3std, symObjAddr: 0x10980, symBinAddr: 0x1001472A0, symSize: 0xF0 }
  - { offset: 0x163571, size: 0x8, addend: 0x0, symName: __RINvNtNtNtNtCs8Tvwocrg46H_4core5slice4sort6shared9smallsort25insertion_sort_shift_leftTRShyENCINvMB8_SB1m_20sort_unstable_by_keyB1n_NCNvMs_NtNtNtNtCsfJuDB63p7eE_3std12backtrace_rs9symbolize5gimli5machoNtB2d_6Object5parses_0E0EB2l_, symObjAddr: 0x10A70, symBinAddr: 0x100147390, symSize: 0x120 }
  - { offset: 0x16399F, size: 0x8, addend: 0x0, symName: __RINvNtNtNtNtCs8Tvwocrg46H_4core5slice4sort6shared5pivot11median3_recNtNtCs8g0Wyh6G27a_6object4read14ObjectMapEntryNCINvMNtCsdN4uhhpLgdG_5alloc5sliceSB14_11sort_by_keyyNCNvMs7_B16_INtB16_9SymbolMapB14_E3new0E0ECsfJuDB63p7eE_3std, symObjAddr: 0xEEA0, symBinAddr: 0x1001457C0, symSize: 0xC0 }
  - { offset: 0x163AB1, size: 0x8, addend: 0x0, symName: __RINvNtNtNtNtCs8Tvwocrg46H_4core5slice4sort6shared5pivot11median3_recNtNtCslX2FC3NAmjD_9addr2line4line12LineSequenceNCINvMNtCsdN4uhhpLgdG_5alloc5sliceSB14_11sort_by_keyyNCINvMs_B16_NtB16_5Lines5parseINtNtNtCsLPpGTdLkDi_5gimli4read12endian_slice11EndianSliceNtNtB3h_9endianity12LittleEndianEEs_0E0ECsfJuDB63p7eE_3std, symObjAddr: 0xEF60, symBinAddr: 0x100145880, symSize: 0xC0 }
  - { offset: 0x163BC3, size: 0x8, addend: 0x0, symName: __RINvNtNtNtNtCs8Tvwocrg46H_4core5slice4sort6shared5pivot11median3_recNtNtCslX2FC3NAmjD_9addr2line4unit9UnitRangeNCINvMNtCsdN4uhhpLgdG_5alloc5sliceSB14_11sort_by_keyyNCNvMs_B16_INtB16_8ResUnitsINtNtNtCsLPpGTdLkDi_5gimli4read12endian_slice11EndianSliceNtNtB3a_9endianity12LittleEndianEE5parses2_0E0ECsfJuDB63p7eE_3std, symObjAddr: 0xF020, symBinAddr: 0x100145940, symSize: 0xC0 }
  - { offset: 0x163CD5, size: 0x8, addend: 0x0, symName: __RINvNtNtNtNtCs8Tvwocrg46H_4core5slice4sort6shared5pivot11median3_recNtNtCslX2FC3NAmjD_9addr2line8function15FunctionAddressNCINvMNtCsdN4uhhpLgdG_5alloc5sliceSB14_11sort_by_keyyNCNvMs0_B16_INtB16_9FunctionsINtNtNtCsLPpGTdLkDi_5gimli4read12endian_slice11EndianSliceNtNtB3n_9endianity12LittleEndianEE5parses_0E0ECsfJuDB63p7eE_3std, symObjAddr: 0xF0E0, symBinAddr: 0x100145A00, symSize: 0xC0 }
  - { offset: 0x163DE7, size: 0x8, addend: 0x0, symName: __RINvNtNtNtNtCs8Tvwocrg46H_4core5slice4sort6shared5pivot11median3_recNtNtCslX2FC3NAmjD_9addr2line8function22InlinedFunctionAddressNCINvMNtCsdN4uhhpLgdG_5alloc5sliceSB14_7sort_byNCNvMs1_B16_INtB16_8FunctionINtNtNtCsLPpGTdLkDi_5gimli4read12endian_slice11EndianSliceNtNtB3n_9endianity12LittleEndianEE5parse0E0ECsfJuDB63p7eE_3std, symObjAddr: 0xF1A0, symBinAddr: 0x100145AC0, symSize: 0x110 }
  - { offset: 0x163F04, size: 0x8, addend: 0x0, symName: __RINvNtNtNtNtCs8Tvwocrg46H_4core5slice4sort6shared5pivot11median3_recTNtNtCsLPpGTdLkDi_5gimli6common15DebugInfoOffsetNtB17_18DebugArangesOffsetENCINvMNtCsdN4uhhpLgdG_5alloc5sliceSB14_11sort_by_keyB15_NCNvMs_NtCslX2FC3NAmjD_9addr2line4unitINtB3i_8ResUnitsINtNtNtB19_4read12endian_slice11EndianSliceNtNtB19_9endianity12LittleEndianEE5parse0E0ECsfJuDB63p7eE_3std, symObjAddr: 0xF2B0, symBinAddr: 0x100145BD0, symSize: 0xB0 }
  - { offset: 0x164044, size: 0x8, addend: 0x0, symName: __RINvNtNtNtNtCs8Tvwocrg46H_4core5slice4sort6shared5pivot11median3_recTRShyENCINvMB8_SB14_20sort_unstable_by_keyB15_NCNvMs_NtNtNtNtCsfJuDB63p7eE_3std12backtrace_rs9symbolize5gimli5machoNtB1V_6Object5parses_0E0EB23_, symObjAddr: 0xF360, symBinAddr: 0x100145C80, symSize: 0x140 }
  - { offset: 0x164292, size: 0x8, addend: 0x0, symName: __RINvNtNtNtNtCs8Tvwocrg46H_4core5slice4sort6shared5pivot11median3_recTRShyENCINvMB8_SB14_20sort_unstable_by_keyyNCNvMs_NtNtNtNtCsfJuDB63p7eE_3std12backtrace_rs9symbolize5gimli5machoNtB1S_6Object5parses0_0E0EB20_, symObjAddr: 0xF4A0, symBinAddr: 0x100145DC0, symSize: 0xC0 }
  - { offset: 0x164457, size: 0x8, addend: 0x0, symName: __RINvNtNtNtCs8Tvwocrg46H_4core5slice4sort8unstable7ipnsortTRShyENCINvMB6_SBT_20sort_unstable_by_keyBU_NCNvMs_NtNtNtNtCsfJuDB63p7eE_3std12backtrace_rs9symbolize5gimli5machoNtB1I_6Object5parses_0E0EB1Q_, symObjAddr: 0xE670, symBinAddr: 0x100145510, symSize: 0x1B0 }
  - { offset: 0x164721, size: 0x8, addend: 0x0, symName: __RINvNtNtNtCs8Tvwocrg46H_4core5slice4sort8unstable7ipnsortTRShyENCINvMB6_SBT_20sort_unstable_by_keyyNCNvMs_NtNtNtNtCsfJuDB63p7eE_3std12backtrace_rs9symbolize5gimli5machoNtB1G_6Object5parses0_0E0EB1O_, symObjAddr: 0xE820, symBinAddr: 0x1001456C0, symSize: 0x100 }
  - { offset: 0x1648F8, size: 0x8, addend: 0x0, symName: __RINvNtNtNtNtCs8Tvwocrg46H_4core5slice4sort8unstable8heapsort8heapsortTRShyENCINvMB8_SB15_20sort_unstable_by_keyB16_NCNvMs_NtNtNtNtCsfJuDB63p7eE_3std12backtrace_rs9symbolize5gimli5machoNtB1W_6Object5parses_0E0EB24_, symObjAddr: 0x17A30, symBinAddr: 0x10014E350, symSize: 0x1E0 }
  - { offset: 0x164C20, size: 0x8, addend: 0x0, symName: __RINvNtNtNtNtCs8Tvwocrg46H_4core5slice4sort8unstable8heapsort8heapsortTRShyENCINvMB8_SB15_20sort_unstable_by_keyyNCNvMs_NtNtNtNtCsfJuDB63p7eE_3std12backtrace_rs9symbolize5gimli5machoNtB1T_6Object5parses0_0E0EB21_, symObjAddr: 0x17C10, symBinAddr: 0x10014E530, symSize: 0x120 }
  - { offset: 0x164F22, size: 0x8, addend: 0x0, symName: __RINvNtNtNtNtCs8Tvwocrg46H_4core5slice4sort8unstable9quicksort9quicksortTRShyENCINvMB8_SB17_20sort_unstable_by_keyB18_NCNvMs_NtNtNtNtCsfJuDB63p7eE_3std12backtrace_rs9symbolize5gimli5machoNtB1Y_6Object5parses_0E0EB26_, symObjAddr: 0x17D30, symBinAddr: 0x10014E650, symSize: 0x650 }
  - { offset: 0x1659D6, size: 0x8, addend: 0x0, symName: __RINvNtNtNtNtCs8Tvwocrg46H_4core5slice4sort8unstable9quicksort9quicksortTRShyENCINvMB8_SB17_20sort_unstable_by_keyyNCNvMs_NtNtNtNtCsfJuDB63p7eE_3std12backtrace_rs9symbolize5gimli5machoNtB1V_6Object5parses0_0E0EB23_, symObjAddr: 0x18380, symBinAddr: 0x10014ECA0, symSize: 0x4D0 }
  - { offset: 0x167B85, size: 0x8, addend: 0x0, symName: __RINvNtCs8Tvwocrg46H_4core3ptr13drop_in_placeINtCslX2FC3NAmjD_9addr2line7ContextINtNtNtCsLPpGTdLkDi_5gimli4read12endian_slice11EndianSliceNtNtB1m_9endianity12LittleEndianEEECsfJuDB63p7eE_3std, symObjAddr: 0x69A0, symBinAddr: 0x10013F4A0, symSize: 0x60 }
  - { offset: 0x167C22, size: 0x8, addend: 0x0, symName: __RINvNtCs8Tvwocrg46H_4core3ptr13drop_in_placeINtNtB4_3pin3PinINtNtCsdN4uhhpLgdG_5alloc5boxed3BoxNtNtNtNtNtNtCsfJuDB63p7eE_3std3sys3pal4unix4sync5mutex5MutexEEEB1H_, symObjAddr: 0x6A00, symBinAddr: 0x10013F500, symSize: 0x30 }
  - { offset: 0x167CEC, size: 0x8, addend: 0x0, symName: __RINvNtCs8Tvwocrg46H_4core3ptr13drop_in_placeINtNtB4_6option6OptionINtNtNtCsLPpGTdLkDi_5gimli4read4line21IncompleteLineProgramINtNtB17_12endian_slice11EndianSliceNtNtB19_9endianity12LittleEndianEjEEECsfJuDB63p7eE_3std, symObjAddr: 0x6A60, symBinAddr: 0x10013F530, symSize: 0xA0 }
  - { offset: 0x16806F, size: 0x8, addend: 0x0, symName: __RINvNtCs8Tvwocrg46H_4core3ptr13drop_in_placeINtNtB4_6option6OptionNtNtCs8g0Wyh6G27a_6object4read9ObjectMapEECsfJuDB63p7eE_3std, symObjAddr: 0x6B00, symBinAddr: 0x10013F5D0, symSize: 0x60 }
  - { offset: 0x168274, size: 0x8, addend: 0x0, symName: __RINvNtCs8Tvwocrg46H_4core3ptr13drop_in_placeINtNtB4_6option6OptionNtNtNtNtCsfJuDB63p7eE_3std12backtrace_rs9symbolize5gimli7MappingEEB1a_, symObjAddr: 0x6BB0, symBinAddr: 0x10013F630, symSize: 0x70 }
  - { offset: 0x168340, size: 0x8, addend: 0x0, symName: __RINvNtCs8Tvwocrg46H_4core3ptr13drop_in_placeINtNtB4_6result6ResultINtNtB4_6option6OptionINtNtCsdN4uhhpLgdG_5alloc5boxed3BoxINtNtCslX2FC3NAmjD_9addr2line4unit7DwoUnitINtNtNtCsLPpGTdLkDi_5gimli4read12endian_slice11EndianSliceNtNtB2K_9endianity12LittleEndianEEEENtB2I_5ErrorEECsfJuDB63p7eE_3std, symObjAddr: 0x6C40, symBinAddr: 0x10013F6A0, symSize: 0xB0 }
  - { offset: 0x1685DC, size: 0x8, addend: 0x0, symName: __RINvNtCs8Tvwocrg46H_4core3ptr13drop_in_placeINtNtB4_6result6ResultINtNtCslX2FC3NAmjD_9addr2line5frame9FrameIterINtNtNtCsLPpGTdLkDi_5gimli4read12endian_slice11EndianSliceNtNtB1S_9endianity12LittleEndianEENtB1Q_5ErrorEECsfJuDB63p7eE_3std, symObjAddr: 0x6CF0, symBinAddr: 0x10013F750, symSize: 0x30 }
  - { offset: 0x168764, size: 0x8, addend: 0x0, symName: __RINvNtCs8Tvwocrg46H_4core3ptr13drop_in_placeINtNtB4_6result6ResultINtNtCslX2FC3NAmjD_9addr2line8function9FunctionsINtNtNtCsLPpGTdLkDi_5gimli4read12endian_slice11EndianSliceNtNtB1V_9endianity12LittleEndianEENtB1T_5ErrorEECsfJuDB63p7eE_3std, symObjAddr: 0x6D20, symBinAddr: 0x10013F780, symSize: 0xE0 }
  - { offset: 0x168B1C, size: 0x8, addend: 0x0, symName: __RINvNtCs8Tvwocrg46H_4core3ptr13drop_in_placeINtNtB4_6result6ResultNtNtCslX2FC3NAmjD_9addr2line4line5LinesNtNtCsLPpGTdLkDi_5gimli4read5ErrorEECsfJuDB63p7eE_3std, symObjAddr: 0x6E80, symBinAddr: 0x10013F860, symSize: 0xE0 }
  - { offset: 0x168E41, size: 0x8, addend: 0x0, symName: __RINvNtCs8Tvwocrg46H_4core3ptr13drop_in_placeINtNtB4_6result6ResultRIBH_INtNtB4_6option6OptionINtNtCsdN4uhhpLgdG_5alloc5boxed3BoxINtNtCslX2FC3NAmjD_9addr2line4unit7DwoUnitINtNtNtCsLPpGTdLkDi_5gimli4read12endian_slice11EndianSliceNtNtB2P_9endianity12LittleEndianEEEENtB2N_5ErrorETB12_B13_EEECsfJuDB63p7eE_3std, symObjAddr: 0x6F60, symBinAddr: 0x10013F940, symSize: 0x20 }
  - { offset: 0x168E81, size: 0x8, addend: 0x0, symName: __RINvNtCs8Tvwocrg46H_4core3ptr13drop_in_placeINtNtB4_6result6ResultRIBH_INtNtCslX2FC3NAmjD_9addr2line8function8FunctionINtNtNtCsLPpGTdLkDi_5gimli4read12endian_slice11EndianSliceNtNtB1Z_9endianity12LittleEndianEENtB1X_5ErrorETB12_B13_EEECsfJuDB63p7eE_3std, symObjAddr: 0x6F80, symBinAddr: 0x10013F960, symSize: 0x60 }
  - { offset: 0x169048, size: 0x8, addend: 0x0, symName: __RINvNtCs8Tvwocrg46H_4core3ptr13drop_in_placeINtNtB4_6result6ResultRIBH_INtNtCslX2FC3NAmjD_9addr2line8function9FunctionsINtNtNtCsLPpGTdLkDi_5gimli4read12endian_slice11EndianSliceNtNtB20_9endianity12LittleEndianEENtB1Y_5ErrorETB12_B13_EEECsfJuDB63p7eE_3std, symObjAddr: 0x6FE0, symBinAddr: 0x10013F9C0, symSize: 0x20 }
  - { offset: 0x169088, size: 0x8, addend: 0x0, symName: __RINvNtCs8Tvwocrg46H_4core3ptr13drop_in_placeINtNtB4_6result6ResultRIBH_NtNtCslX2FC3NAmjD_9addr2line4line5LinesNtNtCsLPpGTdLkDi_5gimli4read5ErrorETB12_B13_EEECsfJuDB63p7eE_3std, symObjAddr: 0x7000, symBinAddr: 0x10013F9E0, symSize: 0x20 }
  - { offset: 0x1690F2, size: 0x8, addend: 0x0, symName: __RINvNtCs8Tvwocrg46H_4core3ptr13drop_in_placeINtNtB4_6result6ResultRNtNtNtCsfJuDB63p7eE_3std6thread6thread6ThreadTB12_B13_EEEB19_, symObjAddr: 0x7020, symBinAddr: 0x10013FA00, symSize: 0x20 }
  - { offset: 0x1691BB, size: 0x8, addend: 0x0, symName: __RINvNtCs8Tvwocrg46H_4core3ptr13drop_in_placeINtNtB4_6result6ResultuNtNtNtCsfJuDB63p7eE_3std2io5error5ErrorEEB19_, symObjAddr: 0x7060, symBinAddr: 0x10013FA20, symSize: 0x20 }
  - { offset: 0x1691DD, size: 0x8, addend: 0x0, symName: __RINvNtCs8Tvwocrg46H_4core3ptr13drop_in_placeINtNtCsdN4uhhpLgdG_5alloc3vec3VecINtNtB4_6option6OptionIB1e_NtNtNtNtCsfJuDB63p7eE_3std12backtrace_rs9symbolize5gimli7MappingEEEEB1M_, symObjAddr: 0x7080, symBinAddr: 0x10013FA40, symSize: 0x80 }
  - { offset: 0x1693BC, size: 0x8, addend: 0x0, symName: __RINvNtCs8Tvwocrg46H_4core3ptr13drop_in_placeINtNtCsdN4uhhpLgdG_5alloc3vec3VecINtNtCslX2FC3NAmjD_9addr2line4unit7ResUnitINtNtNtCsLPpGTdLkDi_5gimli4read12endian_slice11EndianSliceNtNtB20_9endianity12LittleEndianEEEECsfJuDB63p7eE_3std, symObjAddr: 0x7170, symBinAddr: 0x10013FAC0, symSize: 0xD0 }
  - { offset: 0x1695B0, size: 0x8, addend: 0x0, symName: __RINvNtCs8Tvwocrg46H_4core3ptr13drop_in_placeINtNtCsdN4uhhpLgdG_5alloc3vec3VecINtNtCslX2FC3NAmjD_9addr2line4unit7SupUnitINtNtNtCsLPpGTdLkDi_5gimli4read12endian_slice11EndianSliceNtNtB20_9endianity12LittleEndianEEEECsfJuDB63p7eE_3std, symObjAddr: 0x7240, symBinAddr: 0x10013FB90, symSize: 0x100 }
  - { offset: 0x169818, size: 0x8, addend: 0x0, symName: __RINvNtCs8Tvwocrg46H_4core3ptr13drop_in_placeINtNtCsdN4uhhpLgdG_5alloc3vec3VecINtNtCslX2FC3NAmjD_9addr2line8function12LazyFunctionINtNtNtCsLPpGTdLkDi_5gimli4read12endian_slice11EndianSliceNtNtB2a_9endianity12LittleEndianEEEECsfJuDB63p7eE_3std, symObjAddr: 0x7340, symBinAddr: 0x10013FC90, symSize: 0xC0 }
  - { offset: 0x169AE9, size: 0x8, addend: 0x0, symName: __RINvNtCs8Tvwocrg46H_4core3ptr13drop_in_placeINtNtCsdN4uhhpLgdG_5alloc3vec3VecNtNtBL_6string6StringEECsfJuDB63p7eE_3std, symObjAddr: 0x7400, symBinAddr: 0x10013FD50, symSize: 0x90 }
  - { offset: 0x169CAB, size: 0x8, addend: 0x0, symName: __RINvNtCs8Tvwocrg46H_4core3ptr13drop_in_placeINtNtCsdN4uhhpLgdG_5alloc3vec3VecNtNtCslX2FC3NAmjD_9addr2line4line12LineSequenceEECsfJuDB63p7eE_3std, symObjAddr: 0x7490, symBinAddr: 0x10013FDE0, symSize: 0x90 }
  - { offset: 0x169E6D, size: 0x8, addend: 0x0, symName: __RINvNtCs8Tvwocrg46H_4core3ptr13drop_in_placeINtNtCsdN4uhhpLgdG_5alloc3vec3VechEECsfJuDB63p7eE_3std, symObjAddr: 0x7650, symBinAddr: 0x10013FE70, symSize: 0x20 }
  - { offset: 0x169F1F, size: 0x8, addend: 0x0, symName: __RINvNtCs8Tvwocrg46H_4core3ptr13drop_in_placeINtNtCsdN4uhhpLgdG_5alloc4sync3ArcINtNtNtNtCsfJuDB63p7eE_3std4sync6poison5mutex5MutexINtNtBL_3vec3VechEEEEB1n_, symObjAddr: 0x7670, symBinAddr: 0x10013FE90, symSize: 0x20 }
  - { offset: 0x169FC1, size: 0x8, addend: 0x0, symName: __RINvNtCs8Tvwocrg46H_4core3ptr13drop_in_placeINtNtCsdN4uhhpLgdG_5alloc4sync8ArcInnerINtNtNtCsLPpGTdLkDi_5gimli4read5dwarf5DwarfINtNtB1o_12endian_slice11EndianSliceNtNtB1q_9endianity12LittleEndianEEEECsfJuDB63p7eE_3std, symObjAddr: 0x76B0, symBinAddr: 0x10013FEB0, symSize: 0x60 }
  - { offset: 0x16A06A, size: 0x8, addend: 0x0, symName: __RINvNtCs8Tvwocrg46H_4core3ptr13drop_in_placeINtNtCsdN4uhhpLgdG_5alloc4sync8ArcInnerNtNtNtNtCsfJuDB63p7eE_3std3sys2fs4unix12InnerReadDirEEB1r_, symObjAddr: 0x7710, symBinAddr: 0x10013FF10, symSize: 0x60 }
  - { offset: 0x16A27D, size: 0x8, addend: 0x0, symName: __RINvNtCs8Tvwocrg46H_4core3ptr13drop_in_placeINtNtCsdN4uhhpLgdG_5alloc5boxed3BoxDG0_INtNtNtB4_3ops8function2FnTRL1_INtNtCsfJuDB63p7eE_3std5panic13PanicHookInfoL0_EEEp6OutputuNtNtB4_6marker4SendNtB2N_4SyncEL_EEB1T_, symObjAddr: 0x7770, symBinAddr: 0x10013FF70, symSize: 0x70 }
  - { offset: 0x16A42E, size: 0x8, addend: 0x0, symName: __RINvNtCs8Tvwocrg46H_4core3ptr13drop_in_placeINtNtCsdN4uhhpLgdG_5alloc5boxed3BoxSINtNtB4_6option6OptionIB1h_NtNtNtNtCsfJuDB63p7eE_3std12backtrace_rs9symbolize5gimli7MappingEEEEB1P_, symObjAddr: 0x7880, symBinAddr: 0x10013FFE0, symSize: 0xF0 }
  - { offset: 0x16A5B0, size: 0x8, addend: 0x0, symName: __RINvNtCs8Tvwocrg46H_4core3ptr13drop_in_placeINtNtCsdN4uhhpLgdG_5alloc5boxed3BoxSINtNtCslX2FC3NAmjD_9addr2line8function12LazyFunctionINtNtNtCsLPpGTdLkDi_5gimli4read12endian_slice11EndianSliceNtNtB2d_9endianity12LittleEndianEEEECsfJuDB63p7eE_3std, symObjAddr: 0x7970, symBinAddr: 0x1001400D0, symSize: 0xA0 }
  - { offset: 0x16A5C8, size: 0x8, addend: 0x0, symName: __RINvNtCs8Tvwocrg46H_4core3ptr13drop_in_placeINtNtCsdN4uhhpLgdG_5alloc5boxed3BoxSINtNtCslX2FC3NAmjD_9addr2line8function12LazyFunctionINtNtNtCsLPpGTdLkDi_5gimli4read12endian_slice11EndianSliceNtNtB2d_9endianity12LittleEndianEEEECsfJuDB63p7eE_3std, symObjAddr: 0x7970, symBinAddr: 0x1001400D0, symSize: 0xA0 }
  - { offset: 0x16A83B, size: 0x8, addend: 0x0, symName: __RINvNtCs8Tvwocrg46H_4core3ptr13drop_in_placeINtNtCsdN4uhhpLgdG_5alloc5boxed3BoxSNtNtBL_6string6StringEECsfJuDB63p7eE_3std, symObjAddr: 0x7A10, symBinAddr: 0x100140170, symSize: 0x60 }
  - { offset: 0x16A853, size: 0x8, addend: 0x0, symName: __RINvNtCs8Tvwocrg46H_4core3ptr13drop_in_placeINtNtCsdN4uhhpLgdG_5alloc5boxed3BoxSNtNtBL_6string6StringEECsfJuDB63p7eE_3std, symObjAddr: 0x7A10, symBinAddr: 0x100140170, symSize: 0x60 }
  - { offset: 0x16AA51, size: 0x8, addend: 0x0, symName: __RINvNtCs8Tvwocrg46H_4core3ptr13drop_in_placeINtNtCslX2FC3NAmjD_9addr2line4unit7ResUnitINtNtNtCsLPpGTdLkDi_5gimli4read12endian_slice11EndianSliceNtNtB1t_9endianity12LittleEndianEEECsfJuDB63p7eE_3std, symObjAddr: 0x7A70, symBinAddr: 0x1001401D0, symSize: 0x100 }
  - { offset: 0x16AC78, size: 0x8, addend: 0x0, symName: __RINvNtCs8Tvwocrg46H_4core3ptr13drop_in_placeINtNtCslX2FC3NAmjD_9addr2line4unit7SupUnitINtNtNtCsLPpGTdLkDi_5gimli4read12endian_slice11EndianSliceNtNtB1t_9endianity12LittleEndianEEECsfJuDB63p7eE_3std, symObjAddr: 0x7B70, symBinAddr: 0x1001402D0, symSize: 0x50 }
  - { offset: 0x16AD38, size: 0x8, addend: 0x0, symName: __RINvNtCs8Tvwocrg46H_4core3ptr13drop_in_placeINtNtCslX2FC3NAmjD_9addr2line4unit8ResUnitsINtNtNtCsLPpGTdLkDi_5gimli4read12endian_slice11EndianSliceNtNtB1u_9endianity12LittleEndianEEECsfJuDB63p7eE_3std, symObjAddr: 0x7BC0, symBinAddr: 0x100140320, symSize: 0xE0 }
  - { offset: 0x16AF5D, size: 0x8, addend: 0x0, symName: __RINvNtCs8Tvwocrg46H_4core3ptr13drop_in_placeINtNtCslX2FC3NAmjD_9addr2line4unit8SupUnitsINtNtNtCsLPpGTdLkDi_5gimli4read12endian_slice11EndianSliceNtNtB1u_9endianity12LittleEndianEEECsfJuDB63p7eE_3std, symObjAddr: 0x7CA0, symBinAddr: 0x100140400, symSize: 0xE0 }
  - { offset: 0x16B167, size: 0x8, addend: 0x0, symName: __RINvNtCs8Tvwocrg46H_4core3ptr13drop_in_placeINtNtNtCsLPpGTdLkDi_5gimli4read4line8LineRowsINtNtBL_12endian_slice11EndianSliceNtNtBN_9endianity12LittleEndianEINtBJ_21IncompleteLineProgramB1p_jEjEECsfJuDB63p7eE_3std, symObjAddr: 0x7E20, symBinAddr: 0x1001404E0, symSize: 0xA0 }
  - { offset: 0x16B496, size: 0x8, addend: 0x0, symName: __RINvNtCs8Tvwocrg46H_4core3ptr13drop_in_placeINtNtNtCsLPpGTdLkDi_5gimli4read5dwarf4UnitINtNtBL_12endian_slice11EndianSliceNtNtBN_9endianity12LittleEndianEjEECsfJuDB63p7eE_3std, symObjAddr: 0x7EC0, symBinAddr: 0x100140580, symSize: 0x50 }
  - { offset: 0x16B523, size: 0x8, addend: 0x0, symName: __RINvNtCs8Tvwocrg46H_4core3ptr13drop_in_placeINtNtNtCsLPpGTdLkDi_5gimli4read5dwarf5DwarfINtNtBL_12endian_slice11EndianSliceNtNtBN_9endianity12LittleEndianEEECsfJuDB63p7eE_3std, symObjAddr: 0x7F10, symBinAddr: 0x1001405D0, symSize: 0x60 }
  - { offset: 0x16B5A0, size: 0x8, addend: 0x0, symName: __RINvNtCs8Tvwocrg46H_4core3ptr13drop_in_placeINtNtNtNtCsfJuDB63p7eE_3std3sys16platform_version6darwin8DeferredNCNvBJ_18string_version_key0EEBP_, symObjAddr: 0x82E0, symBinAddr: 0x100140630, symSize: 0x70 }
  - { offset: 0x16B66C, size: 0x8, addend: 0x0, symName: __RINvNtCs8Tvwocrg46H_4core3ptr13drop_in_placeINtNtNtNtCsfJuDB63p7eE_3std4sync6poison5mutex10MutexGuardINtNtCsdN4uhhpLgdG_5alloc3vec3VechEEEBP_, symObjAddr: 0x8350, symBinAddr: 0x1001406A0, symSize: 0x50 }
  - { offset: 0x16B684, size: 0x8, addend: 0x0, symName: __RINvNtCs8Tvwocrg46H_4core3ptr13drop_in_placeINtNtNtNtCsfJuDB63p7eE_3std4sync6poison5mutex10MutexGuardINtNtCsdN4uhhpLgdG_5alloc3vec3VechEEEBP_, symObjAddr: 0x8350, symBinAddr: 0x1001406A0, symSize: 0x50 }
  - { offset: 0x16B771, size: 0x8, addend: 0x0, symName: __RINvNtCs8Tvwocrg46H_4core3ptr13drop_in_placeINtNtNtNtCsfJuDB63p7eE_3std4sync6poison6rwlock15RwLockReadGuarduEEBP_, symObjAddr: 0x83A0, symBinAddr: 0x1001406F0, symSize: 0x50 }
  - { offset: 0x16B813, size: 0x8, addend: 0x0, symName: __RINvNtCs8Tvwocrg46H_4core3ptr13drop_in_placeINtNvNtCsfJuDB63p7eE_3std2io17default_write_fmt7AdapterINtNtBL_6cursor6CursorQShEEEBN_, symObjAddr: 0x83F0, symBinAddr: 0x100140740, symSize: 0x20 }
  - { offset: 0x16B852, size: 0x8, addend: 0x0, symName: __RINvNtCs8Tvwocrg46H_4core3ptr13drop_in_placeINtNvXsy_NtNtNtCsdN4uhhpLgdG_5alloc11collections5btree3mapINtBP_8IntoIterpppENtNtNtB4_3ops4drop4Drop4drop9DropGuardyINtNtB4_6result6ResultINtNtBV_4sync3ArcNtNtNtCsLPpGTdLkDi_5gimli4read6abbrev13AbbreviationsENtB3f_5ErrorENtNtBV_5alloc6GlobalEECsfJuDB63p7eE_3std, symObjAddr: 0x8410, symBinAddr: 0x100140760, symSize: 0x80 }
  - { offset: 0x16B98C, size: 0x8, addend: 0x0, symName: __RINvNtCs8Tvwocrg46H_4core3ptr13drop_in_placeNCNvNtNtCsfJuDB63p7eE_3std3sys9backtrace10__print_fmt0EBO_, symObjAddr: 0x8490, symBinAddr: 0x1001407E0, symSize: 0x20 }
  - { offset: 0x16BAB9, size: 0x8, addend: 0x0, symName: __RINvNtCs8Tvwocrg46H_4core3ptr13drop_in_placeNtNtCs8g0Wyh6G27a_6object4read9ObjectMapECsfJuDB63p7eE_3std, symObjAddr: 0x84E0, symBinAddr: 0x100140800, symSize: 0x50 }
  - { offset: 0x16BC53, size: 0x8, addend: 0x0, symName: __RINvNtCs8Tvwocrg46H_4core3ptr13drop_in_placeNtNtCsdN4uhhpLgdG_5alloc6string6StringECsfJuDB63p7eE_3std, symObjAddr: 0x8530, symBinAddr: 0x100140850, symSize: 0x20 }
  - { offset: 0x16BDC4, size: 0x8, addend: 0x0, symName: __RINvNtCs8Tvwocrg46H_4core3ptr13drop_in_placeNtNtNtCsLPpGTdLkDi_5gimli4read6abbrev13AbbreviationsECsfJuDB63p7eE_3std, symObjAddr: 0x88C0, symBinAddr: 0x100140870, symSize: 0x130 }
  - { offset: 0x16C1CB, size: 0x8, addend: 0x0, symName: __RINvNtCs8Tvwocrg46H_4core3ptr13drop_in_placeNtNtNtCsLPpGTdLkDi_5gimli4read6abbrev18AbbreviationsCacheECsfJuDB63p7eE_3std, symObjAddr: 0x89F0, symBinAddr: 0x1001409A0, symSize: 0xE0 }
  - { offset: 0x16C344, size: 0x8, addend: 0x0, symName: __RINvNtCs8Tvwocrg46H_4core3ptr13drop_in_placeNtNtNtCsdN4uhhpLgdG_5alloc3ffi5c_str8NulErrorECsfJuDB63p7eE_3std, symObjAddr: 0x8B00, symBinAddr: 0x100140A80, symSize: 0x20 }
  - { offset: 0x16C453, size: 0x8, addend: 0x0, symName: __RINvNtCs8Tvwocrg46H_4core3ptr13drop_in_placeNtNtNtCsfJuDB63p7eE_3std2io5error5ErrorEBM_, symObjAddr: 0x8B20, symBinAddr: 0x100140AA0, symSize: 0xB0 }
  - { offset: 0x16C78C, size: 0x8, addend: 0x0, symName: __RINvNtCs8Tvwocrg46H_4core3ptr13drop_in_placeNtNtNtNtCsfJuDB63p7eE_3std12backtrace_rs9backtrace9libunwind4BombEBO_, symObjAddr: 0x8D10, symBinAddr: 0x100140B50, symSize: 0x30 }
  - { offset: 0x16C7FC, size: 0x8, addend: 0x0, symName: __RINvNtCs8Tvwocrg46H_4core3ptr13drop_in_placeNtNtNtNtCsfJuDB63p7eE_3std12backtrace_rs9symbolize5gimli7ContextEBO_, symObjAddr: 0x8D40, symBinAddr: 0x100140B80, symSize: 0x100 }
  - { offset: 0x16CB32, size: 0x8, addend: 0x0, symName: __RINvNtCs8Tvwocrg46H_4core3ptr13drop_in_placeNtNtNtNtNtCsfJuDB63p7eE_3std12backtrace_rs9symbolize5gimli5macho6ObjectEBQ_, symObjAddr: 0x9090, symBinAddr: 0x100140C80, symSize: 0xD0 }
  - { offset: 0x16CF6E, size: 0x8, addend: 0x0, symName: __RINvNtCs8Tvwocrg46H_4core3ptr13drop_in_placeNtNtNtNtNtCsfJuDB63p7eE_3std12backtrace_rs9symbolize5gimli5stash5StashEBQ_, symObjAddr: 0x9160, symBinAddr: 0x100140D50, symSize: 0xE0 }
  - { offset: 0x16D2AB, size: 0x8, addend: 0x0, symName: __RINvNtCs8Tvwocrg46H_4core3ptr13drop_in_placeNtNtNtNtNtNtCsfJuDB63p7eE_3std3sys3pal4unix4sync5mutex9AttrGuardEBS_, symObjAddr: 0x9350, symBinAddr: 0x100140E30, symSize: 0x40 }
  - { offset: 0x16D2CE, size: 0x8, addend: 0x0, symName: __RINvNtCs8Tvwocrg46H_4core3ptr13drop_in_placeNtNvXsf_NtNtCsdN4uhhpLgdG_5alloc5boxed7convertINtBQ_3BoxDNtNtB4_5error5ErrorNtNtB4_6marker4SendNtB1W_4SyncEL_EINtNtB4_7convert4FromNtNtBS_6string6StringE4from11StringErrorECsfJuDB63p7eE_3std, symObjAddr: 0x9520, symBinAddr: 0x100140E70, symSize: 0x20 }
  - { offset: 0x16D3BC, size: 0x8, addend: 0x0, symName: __RINvNtCs8Tvwocrg46H_4core3ptr13drop_in_placeSINtNtB4_6option6OptionIBI_NtNtNtNtCsfJuDB63p7eE_3std12backtrace_rs9symbolize5gimli7MappingEEEB1f_, symObjAddr: 0x9540, symBinAddr: 0x100140E90, symSize: 0xE0 }
  - { offset: 0x171F06, size: 0x8, addend: 0x0, symName: __RNvXsu_NtNtCs8Tvwocrg46H_4core3ffi5c_strNtB5_22FromBytesUntilNulErrorNtNtB9_3fmt5Debug3fmt, symObjAddr: 0x59600, symBinAddr: 0x1001660F0, symSize: 0x40 }
  - { offset: 0x171F29, size: 0x8, addend: 0x0, symName: __RINvNtCs8Tvwocrg46H_4core9panicking13assert_failedhhECsfJuDB63p7eE_3std, symObjAddr: 0x97CF, symBinAddr: 0x10017AE5F, symSize: 0x34 }
  - { offset: 0x171F44, size: 0x8, addend: 0x0, symName: __RINvNtCs8Tvwocrg46H_4core9panicking13assert_failedllECsfJuDB63p7eE_3std, symObjAddr: 0x9803, symBinAddr: 0x10017AE93, symSize: 0x3D }
  - { offset: 0x1720E0, size: 0x8, addend: 0x0, symName: __RNvXs1i_NtCs8Tvwocrg46H_4core3fmtRNtNtNtB8_5panic8location8LocationNtB6_7Display3fmtCsfJuDB63p7eE_3std, symObjAddr: 0x4D0E0, symBinAddr: 0x100163F60, symSize: 0x70 }
  - { offset: 0x172157, size: 0x8, addend: 0x0, symName: __RNvXs1i_NtCs8Tvwocrg46H_4core3fmtReNtB6_7Display3fmtCsfJuDB63p7eE_3std, symObjAddr: 0x4D150, symBinAddr: 0x100163FD0, symSize: 0x20 }
  - { offset: 0x17219C, size: 0x8, addend: 0x0, symName: __RNvXs1g_NtCs8Tvwocrg46H_4core3fmtRINtNtCsdN4uhhpLgdG_5alloc3vec3VechENtB6_5Debug3fmtCsfJuDB63p7eE_3std, symObjAddr: 0x4C530, symBinAddr: 0x100163E00, symSize: 0x80 }
  - { offset: 0x1722B8, size: 0x8, addend: 0x0, symName: __RNvXs1g_NtCs8Tvwocrg46H_4core3fmtRINtNtCsdN4uhhpLgdG_5alloc5boxed3BoxDNtNtB8_5error5ErrorNtNtB8_6marker4SendNtB1r_4SyncEL_ENtB6_5Debug3fmtCsfJuDB63p7eE_3std, symObjAddr: 0x4C5B0, symBinAddr: 0x100163E80, symSize: 0x20 }
  - { offset: 0x1722EA, size: 0x8, addend: 0x0, symName: __RNvXs1g_NtCs8Tvwocrg46H_4core3fmtRNtNtNtB8_3ffi5c_str4CStrNtB6_5Debug3fmtCsfJuDB63p7eE_3std, symObjAddr: 0x4CB60, symBinAddr: 0x100163EA0, symSize: 0x20 }
  - { offset: 0x172313, size: 0x8, addend: 0x0, symName: __RNvXs1g_NtCs8Tvwocrg46H_4core3fmtReNtB6_5Debug3fmtCsfJuDB63p7eE_3std, symObjAddr: 0x4D010, symBinAddr: 0x100163EC0, symSize: 0x20 }
  - { offset: 0x172327, size: 0x8, addend: 0x0, symName: __RNvXs1g_NtCs8Tvwocrg46H_4core3fmtRhNtB6_5Debug3fmtCsfJuDB63p7eE_3std, symObjAddr: 0x4D030, symBinAddr: 0x100163EE0, symSize: 0x30 }
  - { offset: 0x172370, size: 0x8, addend: 0x0, symName: __RNvXs1g_NtCs8Tvwocrg46H_4core3fmtRlNtB6_5Debug3fmtCsfJuDB63p7eE_3std, symObjAddr: 0x4D060, symBinAddr: 0x100163F10, symSize: 0x30 }
  - { offset: 0x1723B9, size: 0x8, addend: 0x0, symName: __RNvXs1g_NtCs8Tvwocrg46H_4core3fmtRuNtB6_5Debug3fmtCsfJuDB63p7eE_3std, symObjAddr: 0x4D0C0, symBinAddr: 0x100163F40, symSize: 0x20 }
  - { offset: 0x172429, size: 0x8, addend: 0x0, symName: __RNvXsQ_NtNtCs8Tvwocrg46H_4core3fmt3numlNtB7_5Debug3fmt, symObjAddr: 0x53050, symBinAddr: 0x100164BC0, symSize: 0x30 }
  - { offset: 0x17245B, size: 0x8, addend: 0x0, symName: __RNvXsZ_NtNtCs8Tvwocrg46H_4core3fmt3numjNtB7_5Debug3fmt, symObjAddr: 0x53670, symBinAddr: 0x100164DF0, symSize: 0x30 }
  - { offset: 0x1724B1, size: 0x8, addend: 0x0, symName: __RNvXs1j_NtCs8Tvwocrg46H_4core3fmtQDNtNtB8_5panic12PanicPayloadEL_NtB6_7Display3fmtCsfJuDB63p7eE_3std, symObjAddr: 0x4D170, symBinAddr: 0x100163FF0, symSize: 0x20 }
  - { offset: 0x1724FD, size: 0x8, addend: 0x0, symName: __RNvXsq_NtCs8Tvwocrg46H_4core3fmtONtNtB7_3ffi6c_voidNtB5_5Debug3fmtCsfJuDB63p7eE_3std, symObjAddr: 0x58780, symBinAddr: 0x100165860, symSize: 0x10 }
  - { offset: 0x17254D, size: 0x8, addend: 0x0, symName: __RNvYINtNvNtCsfJuDB63p7eE_3std2io17default_write_fmt7AdapterINtNtB7_6cursor6CursorQShEENtNtCs8Tvwocrg46H_4core3fmt5Write10write_charB9_, symObjAddr: 0x59D10, symBinAddr: 0x100166440, symSize: 0x140 }
  - { offset: 0x17272C, size: 0x8, addend: 0x0, symName: __RNvYINtNvNtCsfJuDB63p7eE_3std2io17default_write_fmt7AdapterINtNtB7_6cursor6CursorQShEENtNtCs8Tvwocrg46H_4core3fmt5Write9write_fmtB9_, symObjAddr: 0x59E50, symBinAddr: 0x100166580, symSize: 0x20 }
  - { offset: 0x17275C, size: 0x8, addend: 0x0, symName: __RNvYINtNvNtCsfJuDB63p7eE_3std2io17default_write_fmt7AdapterINtNtCsdN4uhhpLgdG_5alloc3vec3VechEENtNtCs8Tvwocrg46H_4core3fmt5Write10write_charB9_, symObjAddr: 0x59E70, symBinAddr: 0x1001665A0, symSize: 0x100 }
  - { offset: 0x1728B3, size: 0x8, addend: 0x0, symName: __RNvYINtNvNtCsfJuDB63p7eE_3std2io17default_write_fmt7AdapterINtNtCsdN4uhhpLgdG_5alloc3vec3VechEENtNtCs8Tvwocrg46H_4core3fmt5Write9write_fmtB9_, symObjAddr: 0x59F70, symBinAddr: 0x1001666A0, symSize: 0x20 }
  - { offset: 0x1728E3, size: 0x8, addend: 0x0, symName: __RNvYINtNvNtCsfJuDB63p7eE_3std2io17default_write_fmt7AdapterNtNtNtNtB9_3sys5stdio4unix6StderrENtNtCs8Tvwocrg46H_4core3fmt5Write10write_charB9_, symObjAddr: 0x5A1E0, symBinAddr: 0x1001666C0, symSize: 0xB0 }
  - { offset: 0x172947, size: 0x8, addend: 0x0, symName: __RNvYINtNvNtCsfJuDB63p7eE_3std2io17default_write_fmt7AdapterNtNtNtNtB9_3sys5stdio4unix6StderrENtNtCs8Tvwocrg46H_4core3fmt5Write9write_fmtB9_, symObjAddr: 0x5A290, symBinAddr: 0x100166770, symSize: 0x20 }
  - { offset: 0x172977, size: 0x8, addend: 0x0, symName: __RNvYNtNtCsdN4uhhpLgdG_5alloc6string6StringNtNtCs8Tvwocrg46H_4core3fmt5Write9write_fmtCsfJuDB63p7eE_3std, symObjAddr: 0x5A390, symBinAddr: 0x1001667A0, symSize: 0x20 }
  - { offset: 0x1729FA, size: 0x8, addend: 0x0, symName: __RNCNvNtNtCs8Tvwocrg46H_4core3str7pattern13simd_containss0_0CsfJuDB63p7eE_3std, symObjAddr: 0x1A810, symBinAddr: 0x10017B0E0, symSize: 0xF0 }
  - { offset: 0x172BCC, size: 0x8, addend: 0x0, symName: __RNvXst_NtNtCs8Tvwocrg46H_4core3str7patternReNtB5_7Pattern15is_contained_in, symObjAddr: 0x58CC0, symBinAddr: 0x1001658B0, symSize: 0x840 }
  - { offset: 0x17360F, size: 0x8, addend: 0x0, symName: __RNvYINtNvNtCsfJuDB63p7eE_3std9panicking11begin_panic7PayloadReENtNtCs8Tvwocrg46H_4core5panic12PanicPayload6as_strB9_, symObjAddr: 0x5A380, symBinAddr: 0x100166790, symSize: 0x10 }
  - { offset: 0x17373A, size: 0x8, addend: 0x0, symName: __RNvXNtCs8Tvwocrg46H_4core3anyNtNtCsdN4uhhpLgdG_5alloc6string6StringNtB2_3Any7type_idCsfJuDB63p7eE_3std, symObjAddr: 0x48780, symBinAddr: 0x1001633F0, symSize: 0x30 }
  - { offset: 0x17376C, size: 0x8, addend: 0x0, symName: __RNvXNtCs8Tvwocrg46H_4core3anyReNtB2_3Any7type_idCsfJuDB63p7eE_3std, symObjAddr: 0x487B0, symBinAddr: 0x100163420, symSize: 0x30 }
  - { offset: 0x173849, size: 0x8, addend: 0x0, symName: __RNvYNtNvXsf_NtNtCsdN4uhhpLgdG_5alloc5boxed7convertINtBc_3BoxDNtNtCs8Tvwocrg46H_4core5error5ErrorNtNtB11_6marker4SendNtB1y_4SyncEL_EINtNtB11_7convert4FromNtNtBe_6string6StringE4from11StringErrorBX_11descriptionCsfJuDB63p7eE_3std, symObjAddr: 0x5A750, symBinAddr: 0x100166AF0, symSize: 0x20 }
  - { offset: 0x173864, size: 0x8, addend: 0x0, symName: __RNvYNtNvXsf_NtNtCsdN4uhhpLgdG_5alloc5boxed7convertINtBc_3BoxDNtNtCs8Tvwocrg46H_4core5error5ErrorNtNtB11_6marker4SendNtB1y_4SyncEL_EINtNtB11_7convert4FromNtNtBe_6string6StringE4from11StringErrorBX_5causeCsfJuDB63p7eE_3std, symObjAddr: 0x5A770, symBinAddr: 0x100166B10, symSize: 0x10 }
  - { offset: 0x17387F, size: 0x8, addend: 0x0, symName: __RNvYNtNvXsf_NtNtCsdN4uhhpLgdG_5alloc5boxed7convertINtBc_3BoxDNtNtCs8Tvwocrg46H_4core5error5ErrorNtNtB11_6marker4SendNtB1y_4SyncEL_EINtNtB11_7convert4FromNtNtBe_6string6StringE4from11StringErrorBX_7provideCsfJuDB63p7eE_3std, symObjAddr: 0x5A780, symBinAddr: 0x100166B20, symSize: 0x10 }
  - { offset: 0x17389B, size: 0x8, addend: 0x0, symName: __RNvYNtNvXsf_NtNtCsdN4uhhpLgdG_5alloc5boxed7convertINtBc_3BoxDNtNtCs8Tvwocrg46H_4core5error5ErrorNtNtB11_6marker4SendNtB1y_4SyncEL_EINtNtB11_7convert4FromNtNtBe_6string6StringE4from11StringErrorBX_7type_idCsfJuDB63p7eE_3std, symObjAddr: 0x5A790, symBinAddr: 0x100166B30, symSize: 0x30 }
  - { offset: 0x173918, size: 0x8, addend: 0x0, symName: __RNvMs1_NtCslX2FC3NAmjD_9addr2line8functionINtB5_8FunctionINtNtNtCsLPpGTdLkDi_5gimli4read12endian_slice11EndianSliceNtNtB10_9endianity12LittleEndianEE14parse_childrenCsfJuDB63p7eE_3std, symObjAddr: 0x23C90, symBinAddr: 0x100151660, symSize: 0x13B0 }
  - { offset: 0x175071, size: 0x8, addend: 0x0, symName: __RINvNtCslX2FC3NAmjD_9addr2line8function10name_entryINtNtNtCsLPpGTdLkDi_5gimli4read12endian_slice11EndianSliceNtNtBU_9endianity12LittleEndianEECsfJuDB63p7eE_3std, symObjAddr: 0xA970, symBinAddr: 0x100141830, symSize: 0x410 }
  - { offset: 0x1754EA, size: 0x8, addend: 0x0, symName: __RINvNtCslX2FC3NAmjD_9addr2line8function9name_attrINtNtNtCsLPpGTdLkDi_5gimli4read12endian_slice11EndianSliceNtNtBS_9endianity12LittleEndianEECsfJuDB63p7eE_3std, symObjAddr: 0xAD80, symBinAddr: 0x100141C40, symSize: 0x1B0 }
  - { offset: 0x1758C4, size: 0x8, addend: 0x0, symName: __RINvNtCslX2FC3NAmjD_9addr2line4line11render_fileINtNtNtCsLPpGTdLkDi_5gimli4read12endian_slice11EndianSliceNtNtBR_9endianity12LittleEndianEECsfJuDB63p7eE_3std, symObjAddr: 0xA300, symBinAddr: 0x1001411C0, symSize: 0x670 }
  - { offset: 0x1763B2, size: 0x8, addend: 0x0, symName: __RNvMs0_CslX2FC3NAmjD_9addr2lineINtB5_7ContextINtNtNtCsLPpGTdLkDi_5gimli4read12endian_slice11EndianSliceNtNtBO_9endianity12LittleEndianEE9find_unitCsfJuDB63p7eE_3std, symObjAddr: 0x20100, symBinAddr: 0x100150DF0, symSize: 0x160 }
  - { offset: 0x1766EB, size: 0x8, addend: 0x0, symName: __RNvMNtCslX2FC3NAmjD_9addr2line4unitINtB2_7ResUnitINtNtNtCsLPpGTdLkDi_5gimli4read12endian_slice11EndianSliceNtNtBS_9endianity12LittleEndianEE25find_function_or_locationCsfJuDB63p7eE_3std, symObjAddr: 0x1BFC0, symBinAddr: 0x1001503F0, symSize: 0x560 }
  - { offset: 0x176C12, size: 0x8, addend: 0x0, symName: __RNCNvMNtCslX2FC3NAmjD_9addr2line4unitINtB4_7ResUnitINtNtNtCsLPpGTdLkDi_5gimli4read12endian_slice11EndianSliceNtNtBU_9endianity12LittleEndianEE25find_function_or_location0CsfJuDB63p7eE_3std, symObjAddr: 0x19D10, symBinAddr: 0x10014F810, symSize: 0x340 }
  - { offset: 0x1770B4, size: 0x8, addend: 0x0, symName: __RNvMs2_NtCslX2FC3NAmjD_9addr2line6lookupINtB5_13LoopingLookupINtNtCs8Tvwocrg46H_4core6result6ResultINtNtB7_5frame9FrameIterINtNtNtCsLPpGTdLkDi_5gimli4read12endian_slice11EndianSliceNtNtB24_9endianity12LittleEndianEENtB22_5ErrorEINtB5_12MappedLookupIBY_TINtNtB12_6option6OptionRINtNtB7_8function8FunctionB1X_EEIB44_NtB1C_8LocationEEB3r_EINtB5_12SimpleLookupIBY_TNtB7_9DebugFileINtNtB22_5dwarf7UnitRefB1X_EEB3r_EB1X_NCNvMNtB7_4unitINtB6J_7ResUnitB1X_E14dwarf_and_units4_0ENCNvB6I_25find_function_or_location0ENCNvMs_B7_INtB7_7ContextB1X_E11find_frames0E10new_lookupCsfJuDB63p7eE_3std, symObjAddr: 0x25F30, symBinAddr: 0x100152B90, symSize: 0x530 }
  - { offset: 0x177621, size: 0x8, addend: 0x0, symName: __RNvMNtCslX2FC3NAmjD_9addr2line5frameINtB2_9FrameIterINtNtNtCsLPpGTdLkDi_5gimli4read12endian_slice11EndianSliceNtNtBV_9endianity12LittleEndianEE4nextCsfJuDB63p7eE_3std, symObjAddr: 0x1C520, symBinAddr: 0x100150950, symSize: 0x350 }
  - { offset: 0x177EA3, size: 0x8, addend: 0x0, symName: __RNvMsb_NtNtCsLPpGTdLkDi_5gimli4read4unitINtB5_9AttributeINtNtB7_12endian_slice11EndianSliceNtNtB9_9endianity12LittleEndianEE5valueCsfJuDB63p7eE_3std, symObjAddr: 0x33E40, symBinAddr: 0x10015B5A0, symSize: 0x980 }
  - { offset: 0x1783C5, size: 0x8, addend: 0x0, symName: __RNvXsJ_NtNtCsLPpGTdLkDi_5gimli4read4unitINtB5_14AttributeValueINtNtB7_12endian_slice11EndianSliceNtNtB9_9endianity12LittleEndianEjENtNtCs8Tvwocrg46H_4core5clone5Clone5cloneCsfJuDB63p7eE_3std, symObjAddr: 0x52EB0, symBinAddr: 0x100164AA0, symSize: 0x120 }
  - { offset: 0x178434, size: 0x8, addend: 0x0, symName: __RNvMsc_NtNtCsLPpGTdLkDi_5gimli4read4unitINtB5_14AttributeValueINtNtB7_12endian_slice11EndianSliceNtNtB9_9endianity12LittleEndianEjE8u8_valueCsfJuDB63p7eE_3std, symObjAddr: 0x347C0, symBinAddr: 0x10015BF20, symSize: 0x90 }
  - { offset: 0x17846C, size: 0x8, addend: 0x0, symName: __RNvMsc_NtNtCsLPpGTdLkDi_5gimli4read4unitINtB5_14AttributeValueINtNtB7_12endian_slice11EndianSliceNtNtB9_9endianity12LittleEndianEjE9u16_valueCsfJuDB63p7eE_3std, symObjAddr: 0x34850, symBinAddr: 0x10015BFB0, symSize: 0x70 }
  - { offset: 0x1784DD, size: 0x8, addend: 0x0, symName: __RINvNtNtCsLPpGTdLkDi_5gimli4read4unit15parse_attributeINtNtB4_12endian_slice11EndianSliceNtNtB6_9endianity12LittleEndianEECsfJuDB63p7eE_3std, symObjAddr: 0xBDB0, symBinAddr: 0x100142C70, symSize: 0x1950 }
  - { offset: 0x17B661, size: 0x8, addend: 0x0, symName: __RINvNtNtCsLPpGTdLkDi_5gimli4read4unit15skip_attributesINtNtB4_12endian_slice11EndianSliceNtNtB6_9endianity12LittleEndianEECsfJuDB63p7eE_3std, symObjAddr: 0xD700, symBinAddr: 0x1001445C0, symSize: 0x790 }
  - { offset: 0x17BF4B, size: 0x8, addend: 0x0, symName: __RNvMsf_NtNtCsLPpGTdLkDi_5gimli4read4unitINtB5_13EntriesCursorINtNtB7_12endian_slice11EndianSliceNtNtB9_9endianity12LittleEndianEE10next_entryCsfJuDB63p7eE_3std, symObjAddr: 0x35A90, symBinAddr: 0x10015D1F0, symSize: 0x330 }
  - { offset: 0x17C53C, size: 0x8, addend: 0x0, symName: __RNvMs6_NtNtCsLPpGTdLkDi_5gimli4read4unitINtB5_24DebugInfoUnitHeadersIterINtNtB7_12endian_slice11EndianSliceNtNtB9_9endianity12LittleEndianEE4nextCsfJuDB63p7eE_3std, symObjAddr: 0x29A70, symBinAddr: 0x1001559E0, symSize: 0x5F0 }
  - { offset: 0x17D571, size: 0x8, addend: 0x0, symName: __RNvMs4_NtNtCsLPpGTdLkDi_5gimli4read5dwarfINtB5_4UnitINtNtB7_12endian_slice11EndianSliceNtNtB9_9endianity12LittleEndianEjE3newCsfJuDB63p7eE_3std, symObjAddr: 0x26F30, symBinAddr: 0x1001530C0, symSize: 0x2630 }
  - { offset: 0x18115A, size: 0x8, addend: 0x0, symName: __RNvMs0_NtNtCsLPpGTdLkDi_5gimli4read5dwarfINtB5_5DwarfINtNtB7_12endian_slice11EndianSliceNtNtB9_9endianity12LittleEndianEE11attr_stringCsfJuDB63p7eE_3std, symObjAddr: 0x20260, symBinAddr: 0x100150F50, symSize: 0x210 }
  - { offset: 0x181BB5, size: 0x8, addend: 0x0, symName: __RNvYINtNtNtCsLPpGTdLkDi_5gimli4read12endian_slice11EndianSliceNtNtB9_9endianity12LittleEndianENtNtB7_6reader6Reader11read_offsetCsfJuDB63p7eE_3std, symObjAddr: 0x59AA0, symBinAddr: 0x1001661D0, symSize: 0x90 }
  - { offset: 0x181D97, size: 0x8, addend: 0x0, symName: __RNvYINtNtNtCsLPpGTdLkDi_5gimli4read12endian_slice11EndianSliceNtNtB9_9endianity12LittleEndianENtNtB7_6reader6Reader12read_uleb128CsfJuDB63p7eE_3std, symObjAddr: 0x59B30, symBinAddr: 0x100166260, symSize: 0xB0 }
  - { offset: 0x181E64, size: 0x8, addend: 0x0, symName: __RNvYINtNtNtCsLPpGTdLkDi_5gimli4read12endian_slice11EndianSliceNtNtB9_9endianity12LittleEndianENtNtB7_6reader6Reader17read_sized_offsetCsfJuDB63p7eE_3std, symObjAddr: 0x59BE0, symBinAddr: 0x100166310, symSize: 0x130 }
  - { offset: 0x18254B, size: 0x8, addend: 0x0, symName: __RNvMsc_NtNtCsLPpGTdLkDi_5gimli4read8rnglistsINtB5_11RngListIterINtNtB7_12endian_slice11EndianSliceNtNtB9_9endianity12LittleEndianEE4nextCsfJuDB63p7eE_3std, symObjAddr: 0x348C0, symBinAddr: 0x10015C020, symSize: 0xF70 }
  - { offset: 0x184F5A, size: 0x8, addend: 0x0, symName: __RNvMsd_NtNtCsLPpGTdLkDi_5gimli4read4lineINtB5_9FileEntryINtNtB7_12endian_slice11EndianSliceNtNtB9_9endianity12LittleEndianEjE5parseCsfJuDB63p7eE_3std, symObjAddr: 0x35830, symBinAddr: 0x10015CF90, symSize: 0x260 }
  - { offset: 0x1851F8, size: 0x8, addend: 0x0, symName: __RINvMse_NtNtCsLPpGTdLkDi_5gimli4read4lineNtB6_15FileEntryFormat5parseINtNtB8_12endian_slice11EndianSliceNtNtBa_9endianity12LittleEndianEECsfJuDB63p7eE_3std, symObjAddr: 0x6460, symBinAddr: 0x10013F0E0, symSize: 0x3C0 }
  - { offset: 0x1859AA, size: 0x8, addend: 0x0, symName: __RINvNtNtCsLPpGTdLkDi_5gimli4read4line13parse_file_v5INtNtB4_12endian_slice11EndianSliceNtNtB6_9endianity12LittleEndianEECsfJuDB63p7eE_3std, symObjAddr: 0xAF30, symBinAddr: 0x100141DF0, symSize: 0x350 }
  - { offset: 0x185B4B, size: 0x8, addend: 0x0, symName: __RINvNtNtCsLPpGTdLkDi_5gimli4read4line15parse_attributeINtNtB4_12endian_slice11EndianSliceNtNtB6_9endianity12LittleEndianEECsfJuDB63p7eE_3std, symObjAddr: 0xB280, symBinAddr: 0x100142140, symSize: 0xA20 }
  - { offset: 0x187367, size: 0x8, addend: 0x0, symName: __RINvNtNtCsLPpGTdLkDi_5gimli4read4line18parse_directory_v5INtNtB4_12endian_slice11EndianSliceNtNtB6_9endianity12LittleEndianEECsfJuDB63p7eE_3std, symObjAddr: 0xBCA0, symBinAddr: 0x100142B60, symSize: 0x110 }
  - { offset: 0x187419, size: 0x8, addend: 0x0, symName: __RNvXs11_NtNtCsLPpGTdLkDi_5gimli4read4lineINtB6_9FileEntryINtNtB8_12endian_slice11EndianSliceNtNtBa_9endianity12LittleEndianEjENtNtCs8Tvwocrg46H_4core5clone5Clone5cloneCsfJuDB63p7eE_3std, symObjAddr: 0x4B680, symBinAddr: 0x1001639B0, symSize: 0x310 }
  - { offset: 0x1874F0, size: 0x8, addend: 0x0, symName: __RNvMs4_NtNtCsLPpGTdLkDi_5gimli4read7arangesINtB5_12ArangeHeaderINtNtB7_12endian_slice11EndianSliceNtNtB9_9endianity12LittleEndianEjE5parseCsfJuDB63p7eE_3std, symObjAddr: 0x29560, symBinAddr: 0x1001556F0, symSize: 0x280 }
  - { offset: 0x187C9F, size: 0x8, addend: 0x0, symName: __RNvMs8_NtNtCsLPpGTdLkDi_5gimli4read5indexINtB5_9UnitIndexINtNtB7_12endian_slice11EndianSliceNtNtB9_9endianity12LittleEndianEE5parseCsfJuDB63p7eE_3std, symObjAddr: 0x2A6D0, symBinAddr: 0x100156380, symSize: 0x850 }
  - { offset: 0x187CBD, size: 0x8, addend: 0x0, symName: __RNvMs8_NtNtCsLPpGTdLkDi_5gimli4read5indexINtB5_9UnitIndexINtNtB7_12endian_slice11EndianSliceNtNtB9_9endianity12LittleEndianEE5parseCsfJuDB63p7eE_3std, symObjAddr: 0x2A6D0, symBinAddr: 0x100156380, symSize: 0x850 }
  - { offset: 0x187CD2, size: 0x8, addend: 0x0, symName: __RNvMs8_NtNtCsLPpGTdLkDi_5gimli4read5indexINtB5_9UnitIndexINtNtB7_12endian_slice11EndianSliceNtNtB9_9endianity12LittleEndianEE5parseCsfJuDB63p7eE_3std, symObjAddr: 0x2A6D0, symBinAddr: 0x100156380, symSize: 0x850 }
  - { offset: 0x188758, size: 0x8, addend: 0x0, symName: __RNvMsn_NtCsdN4uhhpLgdG_5alloc4syncINtB5_3ArcINtNtNtCs8Tvwocrg46H_4core3mem12maybe_uninit11MaybeUninitNtNtNtCsfJuDB63p7eE_3std6thread6thread5InnerENtNtB1H_5alloc6SystemE9drop_slowB1H_, symObjAddr: 0x38C30, symBinAddr: 0x10015D6F0, symSize: 0x20 }
  - { offset: 0x188828, size: 0x8, addend: 0x0, symName: __RNvMsn_NtCsdN4uhhpLgdG_5alloc4syncINtB5_3ArcINtNtNtCsLPpGTdLkDi_5gimli4read5dwarf5DwarfINtNtBL_12endian_slice11EndianSliceNtNtBN_9endianity12LittleEndianEEE9drop_slowCsfJuDB63p7eE_3std, symObjAddr: 0x38C50, symBinAddr: 0x10015D710, symSize: 0xA0 }
  - { offset: 0x188A71, size: 0x8, addend: 0x0, symName: __RNvMsn_NtCsdN4uhhpLgdG_5alloc4syncINtB5_3ArcINtNtNtNtCsfJuDB63p7eE_3std4sync6poison5mutex5MutexINtNtB7_3vec3VechEEE9drop_slowBP_, symObjAddr: 0x38CF0, symBinAddr: 0x10015D7B0, symSize: 0x90 }
  - { offset: 0x188DFF, size: 0x8, addend: 0x0, symName: __RNvMsn_NtCsdN4uhhpLgdG_5alloc4syncINtB5_3ArcNtNtNtCsLPpGTdLkDi_5gimli4read6abbrev13AbbreviationsE9drop_slowCsfJuDB63p7eE_3std, symObjAddr: 0x38D80, symBinAddr: 0x10015D840, symSize: 0x70 }
  - { offset: 0x188FDF, size: 0x8, addend: 0x0, symName: __RNvMsn_NtCsdN4uhhpLgdG_5alloc4syncINtB5_3ArcNtNtNtCsfJuDB63p7eE_3std6thread6thread5InnerNtNtBM_5alloc6SystemE9drop_slowBM_, symObjAddr: 0x38DF0, symBinAddr: 0x10015D8B0, symSize: 0x60 }
  - { offset: 0x1891CE, size: 0x8, addend: 0x0, symName: __RNvMsn_NtCsdN4uhhpLgdG_5alloc4syncINtB5_3ArcNtNtNtNtCsfJuDB63p7eE_3std3sys2fs4unix12InnerReadDirE9drop_slowBO_, symObjAddr: 0x38EC0, symBinAddr: 0x10015D910, symSize: 0xA0 }
  - { offset: 0x18A6E7, size: 0x8, addend: 0x0, symName: __RNvMsz_NtNtNtCsdN4uhhpLgdG_5alloc11collections5btree3mapINtB5_8IntoIteryINtNtCs8Tvwocrg46H_4core6result6ResultINtNtBb_4sync3ArcNtNtNtCsLPpGTdLkDi_5gimli4read6abbrev13AbbreviationsENtB25_5ErrorEE10dying_nextCsfJuDB63p7eE_3std, symObjAddr: 0x39EF0, symBinAddr: 0x10015D9B0, symSize: 0x3C0 }
  - { offset: 0x18AAE3, size: 0x8, addend: 0x0, symName: __RNvMsz_NtNtNtCsdN4uhhpLgdG_5alloc11collections5btree3mapINtB5_8IntoIteryNtNtNtCsLPpGTdLkDi_5gimli4read6abbrev12AbbreviationE10dying_nextCsfJuDB63p7eE_3std, symObjAddr: 0x3A2B0, symBinAddr: 0x10015DD70, symSize: 0x3C0 }
  - { offset: 0x18B928, size: 0x8, addend: 0x0, symName: __RNvMs4_NtCsdN4uhhpLgdG_5alloc7raw_vecINtB5_11RawVecInnerNtNtCsfJuDB63p7eE_3std5alloc6SystemE11finish_growBW_, symObjAddr: 0x26D70, symBinAddr: 0x10017B8A0, symSize: 0xA0 }
  - { offset: 0x18BA5E, size: 0x8, addend: 0x0, symName: __RNvMs4_NtCsdN4uhhpLgdG_5alloc7raw_vecINtB5_11RawVecInnerNtNtCsfJuDB63p7eE_3std5alloc6SystemE14grow_amortizedBW_, symObjAddr: 0x26E10, symBinAddr: 0x10017B940, symSize: 0x70 }
  - { offset: 0x18C075, size: 0x8, addend: 0x0, symName: __RNvMs3_NtCsdN4uhhpLgdG_5alloc7raw_vecINtB5_6RawVecINtNtB7_5boxed3BoxDINtNtNtCs8Tvwocrg46H_4core3ops8function5FnMutuEp6OutputINtNtB1c_6result6ResultuNtNtNtCsfJuDB63p7eE_3std2io5error5ErrorENtNtB1c_6marker4SendNtB32_4SyncEL_EE8grow_oneB2s_, symObjAddr: 0x264B0, symBinAddr: 0x10017B3A0, symSize: 0x70 }
  - { offset: 0x18C0FE, size: 0x8, addend: 0x0, symName: __RNvMs3_NtCsdN4uhhpLgdG_5alloc7raw_vecINtB5_6RawVecINtNtCslX2FC3NAmjD_9addr2line4unit7ResUnitINtNtNtCsLPpGTdLkDi_5gimli4read12endian_slice11EndianSliceNtNtB1z_9endianity12LittleEndianEEE8grow_oneCsfJuDB63p7eE_3std, symObjAddr: 0x26520, symBinAddr: 0x10017B410, symSize: 0x70 }
  - { offset: 0x18C187, size: 0x8, addend: 0x0, symName: __RNvMs3_NtCsdN4uhhpLgdG_5alloc7raw_vecINtB5_6RawVecINtNtCslX2FC3NAmjD_9addr2line4unit7SupUnitINtNtNtCsLPpGTdLkDi_5gimli4read12endian_slice11EndianSliceNtNtB1z_9endianity12LittleEndianEEE8grow_oneCsfJuDB63p7eE_3std, symObjAddr: 0x26590, symBinAddr: 0x10017B480, symSize: 0x70 }
  - { offset: 0x18C210, size: 0x8, addend: 0x0, symName: __RNvMs3_NtCsdN4uhhpLgdG_5alloc7raw_vecINtB5_6RawVecINtNtCslX2FC3NAmjD_9addr2line8function12LazyFunctionINtNtNtCsLPpGTdLkDi_5gimli4read12endian_slice11EndianSliceNtNtB1J_9endianity12LittleEndianEEE8grow_oneCsfJuDB63p7eE_3std, symObjAddr: 0x26600, symBinAddr: 0x10017B4F0, symSize: 0x70 }
  - { offset: 0x18C299, size: 0x8, addend: 0x0, symName: __RNvMs3_NtCsdN4uhhpLgdG_5alloc7raw_vecINtB5_6RawVecINtNtCslX2FC3NAmjD_9addr2line8function15InlinedFunctionINtNtNtCsLPpGTdLkDi_5gimli4read12endian_slice11EndianSliceNtNtB1M_9endianity12LittleEndianEEE8grow_oneCsfJuDB63p7eE_3std, symObjAddr: 0x26670, symBinAddr: 0x10017B560, symSize: 0x70 }
  - { offset: 0x18C322, size: 0x8, addend: 0x0, symName: __RNvMs3_NtCsdN4uhhpLgdG_5alloc7raw_vecINtB5_6RawVecINtNtNtCsLPpGTdLkDi_5gimli4read4line9FileEntryINtNtBR_12endian_slice11EndianSliceNtNtBT_9endianity12LittleEndianEjEE8grow_oneCsfJuDB63p7eE_3std, symObjAddr: 0x266E0, symBinAddr: 0x10017B5D0, symSize: 0x70 }
  - { offset: 0x18C3AB, size: 0x8, addend: 0x0, symName: __RNvMs3_NtCsdN4uhhpLgdG_5alloc7raw_vecINtB5_6RawVecINtNtNtCsLPpGTdLkDi_5gimli4read4unit14AttributeValueINtNtBR_12endian_slice11EndianSliceNtNtBT_9endianity12LittleEndianEjEE8grow_oneCsfJuDB63p7eE_3std, symObjAddr: 0x26750, symBinAddr: 0x10017B640, symSize: 0x70 }
  - { offset: 0x18C434, size: 0x8, addend: 0x0, symName: __RNvMs3_NtCsdN4uhhpLgdG_5alloc7raw_vecINtB5_6RawVecNtNtCs8g0Wyh6G27a_6object4read13ObjectMapFileE8grow_oneCsfJuDB63p7eE_3std, symObjAddr: 0x267C0, symBinAddr: 0x10017B6B0, symSize: 0x70 }
  - { offset: 0x18C4BD, size: 0x8, addend: 0x0, symName: __RNvMs3_NtCsdN4uhhpLgdG_5alloc7raw_vecINtB5_6RawVecNtNtCs8g0Wyh6G27a_6object4read14ObjectMapEntryE8grow_oneCsfJuDB63p7eE_3std, symObjAddr: 0x26830, symBinAddr: 0x10017B720, symSize: 0x70 }
  - { offset: 0x18C546, size: 0x8, addend: 0x0, symName: __RNvMs3_NtCsdN4uhhpLgdG_5alloc7raw_vecINtB5_6RawVecNtNtNtCsLPpGTdLkDi_5gimli4read4line15FileEntryFormatE8grow_oneCsfJuDB63p7eE_3std, symObjAddr: 0x26910, symBinAddr: 0x10017B790, symSize: 0x70 }
  - { offset: 0x18C5CF, size: 0x8, addend: 0x0, symName: __RNvMs3_NtCsdN4uhhpLgdG_5alloc7raw_vecINtB5_6RawVecPaE8grow_oneCsfJuDB63p7eE_3std, symObjAddr: 0x26980, symBinAddr: 0x10017B800, symSize: 0x70 }
  - { offset: 0x18C658, size: 0x8, addend: 0x0, symName: __RNvMs3_NtCsdN4uhhpLgdG_5alloc7raw_vecINtB5_6RawVecTOhFUKCBN_EuENtNtCsfJuDB63p7eE_3std5alloc6SystemE8grow_oneB13_, symObjAddr: 0x269F0, symBinAddr: 0x10017B870, symSize: 0x30 }
  - { offset: 0x18CA1E, size: 0x8, addend: 0x0, symName: __RINvNvMs2_NtCsdN4uhhpLgdG_5alloc7raw_vecINtB8_11RawVecInnerpE7reserve21do_reserve_and_handleNtNtBa_5alloc6GlobalECsfJuDB63p7eE_3std, symObjAddr: 0x188D0, symBinAddr: 0x10017B030, symSize: 0x80 }
  - { offset: 0x18CDAD, size: 0x8, addend: 0x0, symName: __RNvNtCsdN4uhhpLgdG_5alloc5boxed14box_new_uninit, symObjAddr: 0x3A670, symBinAddr: 0x10015E130, symSize: 0x40 }
  - { offset: 0x18CF8B, size: 0x8, addend: 0x0, symName: __RNvXsZ_NtCsdN4uhhpLgdG_5alloc6stringNtB5_6StringNtNtCs8Tvwocrg46H_4core3fmt5Write10write_char, symObjAddr: 0x534E0, symBinAddr: 0x100164C60, symSize: 0x120 }
  - { offset: 0x18D123, size: 0x8, addend: 0x0, symName: __RNvXsZ_NtCsdN4uhhpLgdG_5alloc6stringNtB5_6StringNtNtCs8Tvwocrg46H_4core3fmt5Write9write_str, symObjAddr: 0x53600, symBinAddr: 0x100164D80, symSize: 0x70 }
  - { offset: 0x18D22B, size: 0x8, addend: 0x0, symName: __RNvXsq_NtCsdN4uhhpLgdG_5alloc6stringNtB5_6StringNtNtCs8Tvwocrg46H_4core3fmt7Display3fmt, symObjAddr: 0x58810, symBinAddr: 0x100165870, symSize: 0x20 }
  - { offset: 0x18D2EE, size: 0x8, addend: 0x0, symName: __RNvXsr_NtCsdN4uhhpLgdG_5alloc6stringNtB5_6StringNtNtCs8Tvwocrg46H_4core3fmt5Debug3fmt, symObjAddr: 0x58880, symBinAddr: 0x100165890, symSize: 0x20 }
  - { offset: 0x18D427, size: 0x8, addend: 0x0, symName: __RNvXsX_NtNtCsdN4uhhpLgdG_5alloc3ffi5c_strNtB5_8NulErrorNtNtCs8Tvwocrg46H_4core3fmt5Debug3fmt, symObjAddr: 0x53490, symBinAddr: 0x100164C10, symSize: 0x50 }
  - { offset: 0x18D465, size: 0x8, addend: 0x0, symName: __RNvXsa_NtCsdN4uhhpLgdG_5alloc6borrowINtB5_3CowNtNtCsfJuDB63p7eE_3std4path4PathENtNtCs8Tvwocrg46H_4core3fmt5Debug3fmtBM_, symObjAddr: 0x55620, symBinAddr: 0x100164FE0, symSize: 0x30 }
  - { offset: 0x18D559, size: 0x8, addend: 0x0, symName: __RNCINvNtNtCsfJuDB63p7eE_3std6thread7current17with_current_nameNCNCNvNtB8_9panicking12default_hook00uE0B8_, symObjAddr: 0x19450, symBinAddr: 0x10014F2B0, symSize: 0x2F0 }
  - { offset: 0x18D9EC, size: 0x8, addend: 0x0, symName: __RNvNtNtCsfJuDB63p7eE_3std6thread7current12init_current, symObjAddr: 0x3ED70, symBinAddr: 0x10017B9E0, symSize: 0x110 }
  - { offset: 0x18DCE2, size: 0x8, addend: 0x0, symName: __RNvNtNtCsfJuDB63p7eE_3std6thread7current7current, symObjAddr: 0x3EF20, symBinAddr: 0x10015EFC0, symSize: 0x30 }
  - { offset: 0x18DE15, size: 0x8, addend: 0x0, symName: __RNvMs_NtNtCsfJuDB63p7eE_3std6thread6threadNtB4_6Thread3new, symObjAddr: 0x2CD70, symBinAddr: 0x1001570C0, symSize: 0x170 }
  - { offset: 0x18E1A0, size: 0x8, addend: 0x0, symName: __RNvXNtNtNtCsfJuDB63p7eE_3std6thread6thread18thread_name_stringNtB2_16ThreadNameStringINtNtCs8Tvwocrg46H_4core7convert4FromNtNtCsdN4uhhpLgdG_5alloc6string6StringE4from, symObjAddr: 0x49A70, symBinAddr: 0x100163460, symSize: 0x120 }
  - { offset: 0x18E40B, size: 0x8, addend: 0x0, symName: __RNvNvMNtNtCsfJuDB63p7eE_3std6thread2idNtB4_8ThreadId3new9exhausted, symObjAddr: 0x47610, symBinAddr: 0x10017C620, symSize: 0x20 }
  - { offset: 0x18E448, size: 0x8, addend: 0x0, symName: __RNvNtNtCsfJuDB63p7eE_3std6thread9functions4park, symObjAddr: 0x3F230, symBinAddr: 0x10015EFF0, symSize: 0xA0 }
  - { offset: 0x18E61A, size: 0x8, addend: 0x0, symName: __RNvXNtNtCsfJuDB63p7eE_3std6thread9functionsNtB2_10PanicGuardNtNtNtCs8Tvwocrg46H_4core3ops4drop4Drop4drop, symObjAddr: 0x49310, symBinAddr: 0x10017C6A0, symSize: 0x30 }
  - { offset: 0x18E759, size: 0x8, addend: 0x0, symName: __RINvNtNtNtNtCsfJuDB63p7eE_3std3sys12thread_local6native5eager7destroyINtNtCs8Tvwocrg46H_4core4cell4CellINtNtB1a_6option6OptionINtNtCsdN4uhhpLgdG_5alloc4sync3ArcINtNtNtNtBa_4sync6poison5mutex5MutexINtNtB25_3vec3VechEEEEEEBa_, symObjAddr: 0x18850, symBinAddr: 0x10014F170, symSize: 0x20 }
  - { offset: 0x18E8D2, size: 0x8, addend: 0x0, symName: __RNvNvNtNtNtNtCsfJuDB63p7eE_3std3sys12thread_local5guard5apple6enable9run_dtors, symObjAddr: 0x486A0, symBinAddr: 0x100163310, symSize: 0xE0 }
  - { offset: 0x18ED8C, size: 0x8, addend: 0x0, symName: __RNvNtNtNtNtCsfJuDB63p7eE_3std3sys12thread_local11destructors4list8register, symObjAddr: 0x45050, symBinAddr: 0x100162D00, symSize: 0xC0 }
  - { offset: 0x18F068, size: 0x8, addend: 0x0, symName: __RINvMNtNtNtCsfJuDB63p7eE_3std3sys4sync8once_boxINtB3_7OnceBoxNtNtNtNtNtB7_3pal4unix4sync5mutex5MutexE10initializeNCNvMNtNtB5_5mutex7pthreadNtB1S_5Mutex3get0EB9_, symObjAddr: 0x3A90, symBinAddr: 0x10017AD30, symSize: 0x120 }
  - { offset: 0x18F2B9, size: 0x8, addend: 0x0, symName: __RNvMs1_NtNtNtNtCsfJuDB63p7eE_3std3sys4sync6rwlock5queueNtB5_6RwLock12unlock_queue, symObjAddr: 0x25270, symBinAddr: 0x100152A10, symSize: 0x180 }
  - { offset: 0x18F90E, size: 0x8, addend: 0x0, symName: __RNvMs1_NtNtNtNtCsfJuDB63p7eE_3std3sys4sync6rwlock5queueNtB5_6RwLock16unlock_contended, symObjAddr: 0x256D0, symBinAddr: 0x10017B310, symSize: 0x40 }
  - { offset: 0x18F9F3, size: 0x8, addend: 0x0, symName: __RNvMs1_NtNtNtNtCsfJuDB63p7eE_3std3sys4sync6rwlock5queueNtB5_6RwLock21read_unlock_contended, symObjAddr: 0x25710, symBinAddr: 0x10017B350, symSize: 0x50 }
  - { offset: 0x18FC90, size: 0x8, addend: 0x0, symName: __RNvXs0_NtNtNtNtCsfJuDB63p7eE_3std3sys4sync6rwlock5queueNtB5_10PanicGuardNtNtNtCs8Tvwocrg46H_4core3ops4drop4Drop4drop, symObjAddr: 0x4B510, symBinAddr: 0x10017C6D0, symSize: 0x30 }
  - { offset: 0x18FCDA, size: 0x8, addend: 0x0, symName: __RNvMs0_NtNtNtNtCsfJuDB63p7eE_3std3sys4sync14thread_parking6darwinNtB5_6Parker6unpark, symObjAddr: 0x21270, symBinAddr: 0x100151160, symSize: 0x20 }
  - { offset: 0x18FD92, size: 0x8, addend: 0x0, symName: __RNvMNtNtNtNtNtCsfJuDB63p7eE_3std3sys3pal4unix4sync5mutexNtB2_5Mutex4init, symObjAddr: 0x1FF30, symBinAddr: 0x100150CA0, symSize: 0x150 }
  - { offset: 0x18FE4C, size: 0x8, addend: 0x0, symName: __RNvNvMNtNtNtNtNtCsfJuDB63p7eE_3std3sys3pal4unix4sync5mutexNtB4_5Mutex4lock4fail, symObjAddr: 0x47630, symBinAddr: 0x10017C640, symSize: 0x60 }
  - { offset: 0x18FEF4, size: 0x8, addend: 0x0, symName: __RNvNtNtNtCsfJuDB63p7eE_3std3sys3pal4unix14abort_internal, symObjAddr: 0x447A0, symBinAddr: 0x10017C610, symSize: 0x10 }
  - { offset: 0x190052, size: 0x8, addend: 0x0, symName: __RNCNvNtNtNtCsfJuDB63p7eE_3std3sys16platform_version6darwin18string_version_keys_0B9_, symObjAddr: 0x1AFA0, symBinAddr: 0x10017B1D0, symSize: 0x60 }
  - { offset: 0x1901B5, size: 0x8, addend: 0x0, symName: __RNCNvNtNtNtCsfJuDB63p7eE_3std3sys16platform_version6darwin18version_from_plist0B9_, symObjAddr: 0x1B000, symBinAddr: 0x10017B230, symSize: 0x70 }
  - { offset: 0x19025C, size: 0x8, addend: 0x0, symName: __RNvNtNtNtCsfJuDB63p7eE_3std3sys16platform_version6darwin14lookup_version, symObjAddr: 0x429F0, symBinAddr: 0x10017BB10, symSize: 0xB00 }
  - { offset: 0x190FBB, size: 0x8, addend: 0x0, symName: __RNvNtNtNtCsfJuDB63p7eE_3std3sys16platform_version6darwin16parse_os_version, symObjAddr: 0x434F0, symBinAddr: 0x100162280, symSize: 0x690 }
  - { offset: 0x191634, size: 0x8, addend: 0x0, symName: ___isPlatformVersionAtLeast, symObjAddr: 0x5AB00, symBinAddr: 0x100166B60, symSize: 0x80 }
  - { offset: 0x19165D, size: 0x8, addend: 0x0, symName: ___isPlatformVersionAtLeast, symObjAddr: 0x5AB00, symBinAddr: 0x100166B60, symSize: 0x80 }
  - { offset: 0x191672, size: 0x8, addend: 0x0, symName: ___isPlatformVersionAtLeast, symObjAddr: 0x5AB00, symBinAddr: 0x100166B60, symSize: 0x80 }
  - { offset: 0x1917D7, size: 0x8, addend: 0x0, symName: __RNvXs3_NtNtNtCsfJuDB63p7eE_3std3sys5stdio4unixNtB5_6StderrNtNtBb_2io5Write14write_vectored, symObjAddr: 0x4EAD0, symBinAddr: 0x100164110, symSize: 0x50 }
  - { offset: 0x1918AC, size: 0x8, addend: 0x0, symName: __RNvXs3_NtNtNtCsfJuDB63p7eE_3std3sys5stdio4unixNtB5_6StderrNtNtBb_2io5Write17is_write_vectored, symObjAddr: 0x4EB20, symBinAddr: 0x100164160, symSize: 0x10 }
  - { offset: 0x1918C6, size: 0x8, addend: 0x0, symName: __RNvXs3_NtNtNtCsfJuDB63p7eE_3std3sys5stdio4unixNtB5_6StderrNtNtBb_2io5Write5flush, symObjAddr: 0x4EB30, symBinAddr: 0x100164170, symSize: 0x10 }
  - { offset: 0x1918E0, size: 0x8, addend: 0x0, symName: __RNvXs3_NtNtNtCsfJuDB63p7eE_3std3sys5stdio4unixNtB5_6StderrNtNtBb_2io5Write5write, symObjAddr: 0x4EB40, symBinAddr: 0x100164180, symSize: 0x50 }
  - { offset: 0x1919FE, size: 0x8, addend: 0x0, symName: __RNvNtNtNtNtCsfJuDB63p7eE_3std3sys2io5error4unix17decode_error_kind, symObjAddr: 0x45510, symBinAddr: 0x100162DC0, symSize: 0x250 }
  - { offset: 0x191AAD, size: 0x8, addend: 0x0, symName: __RNvMsi_NtNtNtCsfJuDB63p7eE_3std3sys2fs4unixNtB5_4File6open_c, symObjAddr: 0x37F20, symBinAddr: 0x10015D520, symSize: 0x1D0 }
  - { offset: 0x191C35, size: 0x8, addend: 0x0, symName: __RNCNvMsi_NtNtNtCsfJuDB63p7eE_3std3sys2fs4unixNtB7_4File4open0Bd_, symObjAddr: 0x1A560, symBinAddr: 0x10014FB50, symSize: 0x30 }
  - { offset: 0x191CEB, size: 0x8, addend: 0x0, symName: __RNvXsc_NtNtNtCsfJuDB63p7eE_3std3sys2fs4unixNtB5_9DirStreamNtNtNtCs8Tvwocrg46H_4core3ops4drop4Drop4drop, symObjAddr: 0x55EA0, symBinAddr: 0x100165010, symSize: 0xB0 }
  - { offset: 0x191DBC, size: 0x8, addend: 0x0, symName: __RNvNtNtCsfJuDB63p7eE_3std3sys2fs8read_dir, symObjAddr: 0x3E530, symBinAddr: 0x10015EC60, symSize: 0x1F0 }
  - { offset: 0x19208F, size: 0x8, addend: 0x0, symName: __RINvNtNtCsfJuDB63p7eE_3std3sys9backtrace26___rust_end_short_backtraceNCNvNtB6_5alloc8rust_oom0zEB6_, symObjAddr: 0xDEA0, symBinAddr: 0x10017AED0, symSize: 0x10 }
  - { offset: 0x1920A9, size: 0x8, addend: 0x0, symName: __RINvNtNtCsfJuDB63p7eE_3std3sys9backtrace26___rust_end_short_backtraceNCNvNtB6_9panicking13panic_handler0zEB6_, symObjAddr: 0xDEB0, symBinAddr: 0x100144D50, symSize: 0x10 }
  - { offset: 0x1920F0, size: 0x8, addend: 0x0, symName: __RNCNCNvNtNtCsfJuDB63p7eE_3std3sys9backtrace10__print_fmts_00B9_, symObjAddr: 0x19810, symBinAddr: 0x10014F5A0, symSize: 0x270 }
  - { offset: 0x1922F6, size: 0x8, addend: 0x0, symName: __RNCNvNtNtCsfJuDB63p7eE_3std3sys9backtrace10__print_fmt0B7_, symObjAddr: 0x1AE30, symBinAddr: 0x10014FDB0, symSize: 0x20 }
  - { offset: 0x192320, size: 0x8, addend: 0x0, symName: __RNCNvNtNtCsfJuDB63p7eE_3std3sys9backtrace10__print_fmts_0B7_, symObjAddr: 0x1AE50, symBinAddr: 0x10014FDD0, symSize: 0x130 }
  - { offset: 0x192434, size: 0x8, addend: 0x0, symName: __RNvNtNtCsfJuDB63p7eE_3std3sys9backtrace15output_filename, symObjAddr: 0x3EBB0, symBinAddr: 0x10015EE50, symSize: 0xF0 }
  - { offset: 0x19259C, size: 0x8, addend: 0x0, symName: __RNvNtNtCsfJuDB63p7eE_3std3sys9backtrace4lock, symObjAddr: 0x3ECA0, symBinAddr: 0x10015EF40, symSize: 0x80 }
  - { offset: 0x1926F7, size: 0x8, addend: 0x0, symName: __RNvXNvMNtNtCsfJuDB63p7eE_3std3sys9backtraceNtB5_13BacktraceLock5printNtB2_16DisplayBacktraceNtNtCs8Tvwocrg46H_4core3fmt7Display3fmt, symObjAddr: 0x49F30, symBinAddr: 0x100163580, symSize: 0x1E0 }
  - { offset: 0x192AAC, size: 0x8, addend: 0x0, symName: __RINvNtNtNtCsfJuDB63p7eE_3std3sys7helpers14small_c_string24run_with_cstr_allocatingNtNtNtB6_2fs4unix4FileEB8_, symObjAddr: 0xEA90, symBinAddr: 0x10017AEE0, symSize: 0xC0 }
  - { offset: 0x192D25, size: 0x8, addend: 0x0, symName: __RINvNtNtNtCsfJuDB63p7eE_3std3sys7helpers14small_c_string24run_with_cstr_allocatingONtNtCs4VDK9QBVxZ7_4libc4unix3DIREB8_, symObjAddr: 0xED60, symBinAddr: 0x10017AFA0, symSize: 0x90 }
  - { offset: 0x192FA2, size: 0x8, addend: 0x0, symName: __RNCNvNtNtNtCsfJuDB63p7eE_3std3sys3env4unix6getenv0B9_, symObjAddr: 0x1B1E0, symBinAddr: 0x10014FF20, symSize: 0x120 }
  - { offset: 0x1931A0, size: 0x8, addend: 0x0, symName: __RNvNtNtNtCsfJuDB63p7eE_3std3sys3env4unix13env_read_lock, symObjAddr: 0x44390, symBinAddr: 0x100162910, symSize: 0x260 }
  - { offset: 0x1938F6, size: 0x8, addend: 0x0, symName: __RNCNvNtNtNtCsfJuDB63p7eE_3std3sys11personality3gcc14find_eh_action0B9_, symObjAddr: 0x1AF80, symBinAddr: 0x10014FF00, symSize: 0x10 }
  - { offset: 0x19390A, size: 0x8, addend: 0x0, symName: __RNCNvNtNtNtCsfJuDB63p7eE_3std3sys11personality3gcc14find_eh_actions_0B9_, symObjAddr: 0x1AF90, symBinAddr: 0x10014FF10, symSize: 0x10 }
  - { offset: 0x193956, size: 0x8, addend: 0x0, symName: _rust_eh_personality, symObjAddr: 0x5AB80, symBinAddr: 0x100166BE0, symSize: 0x630 }
  - { offset: 0x194B7C, size: 0x8, addend: 0x0, symName: __RNvMs5_NtNtNtCsfJuDB63p7eE_3std4sync6poison5mutexINtB5_5MutexINtNtCsdN4uhhpLgdG_5alloc3vec3VechEE4lockBb_, symObjAddr: 0x29A00, symBinAddr: 0x100155970, symSize: 0x70 }
  - { offset: 0x194DB9, size: 0x8, addend: 0x0, symName: __RINvMs5_NtNtCsfJuDB63p7eE_3std2io5errorNtB6_5Error3newReEBa_, symObjAddr: 0x49F0, symBinAddr: 0x10013EFC0, symSize: 0x120 }
  - { offset: 0x195274, size: 0x8, addend: 0x0, symName: __RNvXNtNtCsfJuDB63p7eE_3std2io5errorNtB2_5ErrorNtNtCs8Tvwocrg46H_4core3fmt5Debug3fmt, symObjAddr: 0x48E40, symBinAddr: 0x100163450, symSize: 0x10 }
  - { offset: 0x1952C5, size: 0x8, addend: 0x0, symName: __RNvXs6_NtNtCsfJuDB63p7eE_3std2io5errorNtNtB5_14repr_bitpacked4ReprNtNtCs8Tvwocrg46H_4core3fmt5Debug3fmt, symObjAddr: 0x50970, symBinAddr: 0x1001641D0, symSize: 0x2E0 }
  - { offset: 0x195589, size: 0x8, addend: 0x0, symName: __RNvXs7_NtNtCsfJuDB63p7eE_3std2io5errorNtB5_5ErrorNtNtCs8Tvwocrg46H_4core3fmt7Display3fmt, symObjAddr: 0x51EF0, symBinAddr: 0x1001644B0, symSize: 0x210 }
  - { offset: 0x195836, size: 0x8, addend: 0x0, symName: __RNvXse_NtNtCsfJuDB63p7eE_3std2io5errorNtB5_9ErrorKindNtNtCs8Tvwocrg46H_4core3fmt5Debug3fmt, symObjAddr: 0x565E0, symBinAddr: 0x1001650C0, symSize: 0x30 }
  - { offset: 0x195896, size: 0x8, addend: 0x0, symName: __RNvNtNtCsfJuDB63p7eE_3std2io5stdio22try_set_output_capture, symObjAddr: 0x3CC20, symBinAddr: 0x10015EBB0, symSize: 0xB0 }
  - { offset: 0x195B50, size: 0x8, addend: 0x0, symName: __RNvXs9_NtNtCsfJuDB63p7eE_3std2io5implsINtNtCsdN4uhhpLgdG_5alloc3vec3VechENtB7_5Write14write_vectoredB9_, symObjAddr: 0x527F0, symBinAddr: 0x1001646C0, symSize: 0x180 }
  - { offset: 0x195D71, size: 0x8, addend: 0x0, symName: __RNvXs9_NtNtCsfJuDB63p7eE_3std2io5implsINtNtCsdN4uhhpLgdG_5alloc3vec3VechENtB7_5Write17is_write_vectoredB9_, symObjAddr: 0x52970, symBinAddr: 0x100164840, symSize: 0x10 }
  - { offset: 0x195D9A, size: 0x8, addend: 0x0, symName: __RNvXs9_NtNtCsfJuDB63p7eE_3std2io5implsINtNtCsdN4uhhpLgdG_5alloc3vec3VechENtB7_5Write18write_all_vectoredB9_, symObjAddr: 0x52980, symBinAddr: 0x100164850, symSize: 0x160 }
  - { offset: 0x195DB9, size: 0x8, addend: 0x0, symName: __RNvXs9_NtNtCsfJuDB63p7eE_3std2io5implsINtNtCsdN4uhhpLgdG_5alloc3vec3VechENtB7_5Write18write_all_vectoredB9_, symObjAddr: 0x52980, symBinAddr: 0x100164850, symSize: 0x160 }
  - { offset: 0x195DCF, size: 0x8, addend: 0x0, symName: __RNvXs9_NtNtCsfJuDB63p7eE_3std2io5implsINtNtCsdN4uhhpLgdG_5alloc3vec3VechENtB7_5Write18write_all_vectoredB9_, symObjAddr: 0x52980, symBinAddr: 0x100164850, symSize: 0x160 }
  - { offset: 0x195DE5, size: 0x8, addend: 0x0, symName: __RNvXs9_NtNtCsfJuDB63p7eE_3std2io5implsINtNtCsdN4uhhpLgdG_5alloc3vec3VechENtB7_5Write18write_all_vectoredB9_, symObjAddr: 0x52980, symBinAddr: 0x100164850, symSize: 0x160 }
  - { offset: 0x195DFB, size: 0x8, addend: 0x0, symName: __RNvXs9_NtNtCsfJuDB63p7eE_3std2io5implsINtNtCsdN4uhhpLgdG_5alloc3vec3VechENtB7_5Write18write_all_vectoredB9_, symObjAddr: 0x52980, symBinAddr: 0x100164850, symSize: 0x160 }
  - { offset: 0x195E11, size: 0x8, addend: 0x0, symName: __RNvXs9_NtNtCsfJuDB63p7eE_3std2io5implsINtNtCsdN4uhhpLgdG_5alloc3vec3VechENtB7_5Write18write_all_vectoredB9_, symObjAddr: 0x52980, symBinAddr: 0x100164850, symSize: 0x160 }
  - { offset: 0x195E26, size: 0x8, addend: 0x0, symName: __RNvXs9_NtNtCsfJuDB63p7eE_3std2io5implsINtNtCsdN4uhhpLgdG_5alloc3vec3VechENtB7_5Write18write_all_vectoredB9_, symObjAddr: 0x52980, symBinAddr: 0x100164850, symSize: 0x160 }
  - { offset: 0x196001, size: 0x8, addend: 0x0, symName: __RNvXs9_NtNtCsfJuDB63p7eE_3std2io5implsINtNtCsdN4uhhpLgdG_5alloc3vec3VechENtB7_5Write5flushB9_, symObjAddr: 0x52AE0, symBinAddr: 0x1001649B0, symSize: 0x10 }
  - { offset: 0x19601C, size: 0x8, addend: 0x0, symName: __RNvXs9_NtNtCsfJuDB63p7eE_3std2io5implsINtNtCsdN4uhhpLgdG_5alloc3vec3VechENtB7_5Write5writeB9_, symObjAddr: 0x52AF0, symBinAddr: 0x1001649C0, symSize: 0x70 }
  - { offset: 0x19610E, size: 0x8, addend: 0x0, symName: __RNvXs9_NtNtCsfJuDB63p7eE_3std2io5implsINtNtCsdN4uhhpLgdG_5alloc3vec3VechENtB7_5Write9write_allB9_, symObjAddr: 0x52B60, symBinAddr: 0x100164A30, symSize: 0x70 }
  - { offset: 0x19620F, size: 0x8, addend: 0x0, symName: __RINvNvNtCsfJuDB63p7eE_3std2io19default_read_to_end16small_probe_readNtNtB6_2fs4FileEB6_, symObjAddr: 0x18950, symBinAddr: 0x10014F190, symSize: 0x120 }
  - { offset: 0x196436, size: 0x8, addend: 0x0, symName: __RINvNtCsfJuDB63p7eE_3std2io19default_read_to_endNtNtB4_2fs4FileEB4_, symObjAddr: 0x9BE0, symBinAddr: 0x100140F70, symSize: 0x250 }
  - { offset: 0x196924, size: 0x8, addend: 0x0, symName: __RNvYINtNtCsdN4uhhpLgdG_5alloc3vec3VechENtNtCsfJuDB63p7eE_3std2io5Write9write_fmtBF_, symObjAddr: 0x59A00, symBinAddr: 0x100166130, symSize: 0xA0 }
  - { offset: 0x19698B, size: 0x8, addend: 0x0, symName: __RNvYNtNtNtNtCsfJuDB63p7eE_3std3sys5stdio4unix6StderrNtNtBa_2io5Write18write_all_vectoredBa_, symObjAddr: 0x5A420, symBinAddr: 0x1001667C0, symSize: 0x1C0 }
  - { offset: 0x196C1F, size: 0x8, addend: 0x0, symName: __RNvYNtNtNtNtCsfJuDB63p7eE_3std3sys5stdio4unix6StderrNtNtBa_2io5Write9write_allBa_, symObjAddr: 0x5A5E0, symBinAddr: 0x100166980, symSize: 0xD0 }
  - { offset: 0x196D2E, size: 0x8, addend: 0x0, symName: __RNvYNtNtNtNtCsfJuDB63p7eE_3std3sys5stdio4unix6StderrNtNtBa_2io5Write9write_fmtBa_, symObjAddr: 0x5A6B0, symBinAddr: 0x100166A50, symSize: 0xA0 }
  - { offset: 0x196DC5, size: 0x8, addend: 0x0, symName: __RNvXNvNtCsfJuDB63p7eE_3std2io17default_write_fmtINtB2_7AdapterINtNtB4_6cursor6CursorQShEENtNtCs8Tvwocrg46H_4core3fmt5Write9write_strB6_, symObjAddr: 0x4A140, symBinAddr: 0x100163760, symSize: 0xA0 }
  - { offset: 0x196F05, size: 0x8, addend: 0x0, symName: __RNvXNvNtCsfJuDB63p7eE_3std2io17default_write_fmtINtB2_7AdapterINtNtCsdN4uhhpLgdG_5alloc3vec3VechEENtNtCs8Tvwocrg46H_4core3fmt5Write9write_strB6_, symObjAddr: 0x4A1E0, symBinAddr: 0x100163800, symSize: 0x70 }
  - { offset: 0x196FFF, size: 0x8, addend: 0x0, symName: __RNvXNvNtCsfJuDB63p7eE_3std2io17default_write_fmtINtB2_7AdapterNtNtNtNtB6_3sys5stdio4unix6StderrENtNtCs8Tvwocrg46H_4core3fmt5Write9write_strB6_, symObjAddr: 0x4A320, symBinAddr: 0x100163870, symSize: 0x100 }
  - { offset: 0x19720D, size: 0x8, addend: 0x0, symName: __RNvMs16_NtCsfJuDB63p7eE_3std4pathNtB6_4Path13__strip_prefix, symObjAddr: 0x22AE0, symBinAddr: 0x100151180, symSize: 0x350 }
  - { offset: 0x197346, size: 0x8, addend: 0x0, symName: __RNvMs16_NtCsfJuDB63p7eE_3std4pathNtB6_4Path5__join, symObjAddr: 0x235D0, symBinAddr: 0x1001514D0, symSize: 0x190 }
  - { offset: 0x197A4B, size: 0x8, addend: 0x0, symName: __RNvMs8_NtCsfJuDB63p7eE_3std4pathNtB5_10Components25parse_next_component_back, symObjAddr: 0x2A320, symBinAddr: 0x100155FD0, symSize: 0x130 }
  - { offset: 0x197C5B, size: 0x8, addend: 0x0, symName: __RNvMs8_NtCsfJuDB63p7eE_3std4pathNtB5_10Components7as_path, symObjAddr: 0x2A450, symBinAddr: 0x100156100, symSize: 0x280 }
  - { offset: 0x197EDA, size: 0x8, addend: 0x0, symName: __RNvXs1Y_NtCsfJuDB63p7eE_3std4pathNtB6_9ComponentNtNtCs8Tvwocrg46H_4core3cmp9PartialEq2eq, symObjAddr: 0x4BA30, symBinAddr: 0x100163CC0, symSize: 0xD0 }
  - { offset: 0x197F9C, size: 0x8, addend: 0x0, symName: __RNvXsi_NtCsfJuDB63p7eE_3std4pathNtB5_10ComponentsNtNtNtNtCs8Tvwocrg46H_4core4iter6traits8iterator8Iterator4next, symObjAddr: 0x572F0, symBinAddr: 0x1001650F0, symSize: 0x2F0 }
  - { offset: 0x19812C, size: 0x8, addend: 0x0, symName: __RNvXsj_NtCsfJuDB63p7eE_3std4pathNtB5_10ComponentsNtNtNtNtCs8Tvwocrg46H_4core4iter6traits12double_ended19DoubleEndedIterator9next_back, symObjAddr: 0x576A0, symBinAddr: 0x1001653E0, symSize: 0x480 }
  - { offset: 0x198451, size: 0x8, addend: 0x0, symName: __RNvXsQ_NtNtCsfJuDB63p7eE_3std3ffi6os_strNtB5_7DisplayNtNtCs8Tvwocrg46H_4core3fmt7Display3fmt, symObjAddr: 0x53080, symBinAddr: 0x100164BF0, symSize: 0x20 }
  - { offset: 0x198571, size: 0x8, addend: 0x0, symName: __RNvMs_NtNtNtNtCsfJuDB63p7eE_3std12backtrace_rs9symbolize5gimli5machoNtB4_6Object5parse, symObjAddr: 0x30D00, symBinAddr: 0x10015A340, symSize: 0x10E0 }
  - { offset: 0x19A785, size: 0x8, addend: 0x0, symName: __RNvMs_NtNtNtNtCsfJuDB63p7eE_3std12backtrace_rs9symbolize5gimli5machoNtB4_6Object7section, symObjAddr: 0x31DE0, symBinAddr: 0x10015B420, symSize: 0x180 }
  - { offset: 0x19ABE9, size: 0x8, addend: 0x0, symName: __RNvNtNtNtNtCsfJuDB63p7eE_3std12backtrace_rs9symbolize5gimli5macho11find_header, symObjAddr: 0x44DC0, symBinAddr: 0x100162B70, symSize: 0x190 }
  - { offset: 0x19B2B7, size: 0x8, addend: 0x0, symName: __RNvMs_NtNtNtCsfJuDB63p7eE_3std12backtrace_rs9symbolize5gimliNtB4_7Context11find_frames, symObjAddr: 0x2D1A0, symBinAddr: 0x100157230, symSize: 0x3D0 }
  - { offset: 0x19B768, size: 0x8, addend: 0x0, symName: __RNvMs_NtNtNtCsfJuDB63p7eE_3std12backtrace_rs9symbolize5gimliNtB4_7Context3new, symObjAddr: 0x2D570, symBinAddr: 0x100157600, symSize: 0x2D40 }
  - { offset: 0x1A01B0, size: 0x8, addend: 0x0, symName: __RNvNtNtNtCsfJuDB63p7eE_3std12backtrace_rs9symbolize5gimli4mmap, symObjAddr: 0x3F7F0, symBinAddr: 0x10015F0D0, symSize: 0x200 }
  - { offset: 0x1A07EC, size: 0x8, addend: 0x0, symName: __RNvNtNtNtCsfJuDB63p7eE_3std12backtrace_rs9symbolize5gimli7resolve, symObjAddr: 0x3F9F0, symBinAddr: 0x10015F2D0, symSize: 0x2FB0 }
  - { offset: 0x1A67BA, size: 0x8, addend: 0x0, symName: __RNvMs_NtNtCsfJuDB63p7eE_3std12backtrace_rs9symbolizeNtB4_6Symbol4name, symObjAddr: 0x2CBD0, symBinAddr: 0x100156FB0, symSize: 0x110 }
  - { offset: 0x1A6933, size: 0x8, addend: 0x0, symName: __RNvXs2_NtNtCsfJuDB63p7eE_3std12backtrace_rs9symbolizeNtB5_10SymbolNameNtNtCs8Tvwocrg46H_4core3fmt7Display3fmt, symObjAddr: 0x4D660, symBinAddr: 0x100164010, symSize: 0xE0 }
  - { offset: 0x1A6A0F, size: 0x8, addend: 0x0, symName: __RNvNvNtNtNtCsfJuDB63p7eE_3std12backtrace_rs9backtrace9libunwind5trace8trace_fn, symObjAddr: 0x485E0, symBinAddr: 0x1001632C0, symSize: 0x50 }
  - { offset: 0x1A6ADF, size: 0x8, addend: 0x0, symName: __RNvMs_NtNtCsfJuDB63p7eE_3std12backtrace_rs5printNtB4_17BacktraceFrameFmt21print_raw_with_column, symObjAddr: 0x2C7B0, symBinAddr: 0x100156BD0, symSize: 0x3E0 }
  - { offset: 0x1A6E12, size: 0x8, addend: 0x0, symName: __RNvNtNtCsfJuDB63p7eE_3std9panicking11panic_count17is_zero_slow_path, symObjAddr: 0x3F730, symBinAddr: 0x10017BAF0, symSize: 0x20 }
  - { offset: 0x1A6E9E, size: 0x8, addend: 0x0, symName: __RNvNtNtCsfJuDB63p7eE_3std9panicking11panic_count8increase, symObjAddr: 0x3F790, symBinAddr: 0x10015F090, symSize: 0x40 }
  - { offset: 0x1A6EB6, size: 0x8, addend: 0x0, symName: __RNvNtNtCsfJuDB63p7eE_3std9panicking11panic_count8increase, symObjAddr: 0x3F790, symBinAddr: 0x10015F090, symSize: 0x40 }
  - { offset: 0x1A6ECC, size: 0x8, addend: 0x0, symName: __RNvNtNtCsfJuDB63p7eE_3std9panicking11panic_count8increase, symObjAddr: 0x3F790, symBinAddr: 0x10015F090, symSize: 0x40 }
  - { offset: 0x1A6FE2, size: 0x8, addend: 0x0, symName: __RNCNvNtCsfJuDB63p7eE_3std9panicking12default_hook0B5_, symObjAddr: 0x1A5EA, symBinAddr: 0x10014FB8A, symSize: 0x186 }
  - { offset: 0x1A7141, size: 0x8, addend: 0x0, symName: __RNCNvNtCsfJuDB63p7eE_3std9panicking13panic_handler0B5_, symObjAddr: 0x1A770, symBinAddr: 0x10014FD10, symSize: 0xA0 }
  - { offset: 0x1A72CA, size: 0x8, addend: 0x0, symName: __RNvXs0_NvNtCsfJuDB63p7eE_3std9panicking13panic_handlerNtB5_19FormatStringPayloadNtNtCs8Tvwocrg46H_4core3fmt7Display3fmt, symObjAddr: 0x4B640, symBinAddr: 0x100163970, symSize: 0x40 }
  - { offset: 0x1A73D0, size: 0x8, addend: 0x0, symName: __RNvXs1_NvNtCsfJuDB63p7eE_3std9panicking13panic_handlerNtB5_16StaticStrPayloadNtNtCs8Tvwocrg46H_4core5panic12PanicPayload3get, symObjAddr: 0x4C2D0, symBinAddr: 0x100163D90, symSize: 0x10 }
  - { offset: 0x1A73EB, size: 0x8, addend: 0x0, symName: __RNvXs1_NvNtCsfJuDB63p7eE_3std9panicking13panic_handlerNtB5_16StaticStrPayloadNtNtCs8Tvwocrg46H_4core5panic12PanicPayload6as_str, symObjAddr: 0x4C2E0, symBinAddr: 0x100163DA0, symSize: 0x10 }
  - { offset: 0x1A7406, size: 0x8, addend: 0x0, symName: __RNvXs1_NvNtCsfJuDB63p7eE_3std9panicking13panic_handlerNtB5_16StaticStrPayloadNtNtCs8Tvwocrg46H_4core5panic12PanicPayload8take_box, symObjAddr: 0x4C2F0, symBinAddr: 0x100163DB0, symSize: 0x50 }
  - { offset: 0x1A74A0, size: 0x8, addend: 0x0, symName: __RNvXs2_NvNtCsfJuDB63p7eE_3std9panicking13panic_handlerNtB5_16StaticStrPayloadNtNtCs8Tvwocrg46H_4core3fmt7Display3fmt, symObjAddr: 0x4DB80, symBinAddr: 0x1001640F0, symSize: 0x20 }
  - { offset: 0x1A74F3, size: 0x8, addend: 0x0, symName: __RNvXs_NvNtCsfJuDB63p7eE_3std9panicking13panic_handlerNtB4_19FormatStringPayloadNtNtCs8Tvwocrg46H_4core5panic12PanicPayload3get, symObjAddr: 0x55350, symBinAddr: 0x100164E20, symSize: 0xA0 }
  - { offset: 0x1A7676, size: 0x8, addend: 0x0, symName: __RNvXs_NvNtCsfJuDB63p7eE_3std9panicking13panic_handlerNtB4_19FormatStringPayloadNtNtCs8Tvwocrg46H_4core5panic12PanicPayload8take_box, symObjAddr: 0x553F0, symBinAddr: 0x100164EC0, symSize: 0x120 }
  - { offset: 0x1A7998, size: 0x8, addend: 0x0, symName: __RNvCsGIExRX8pES_7___rustc10rust_panic, symObjAddr: 0x1BA10, symBinAddr: 0x10017B2A0, symSize: 0x50 }
  - { offset: 0x1A79B3, size: 0x8, addend: 0x0, symName: __RNvCsGIExRX8pES_7___rustc17___rust_drop_panic, symObjAddr: 0x1BB90, symBinAddr: 0x100150240, symSize: 0xF0 }
  - { offset: 0x1A7B0A, size: 0x8, addend: 0x0, symName: __RNvCsGIExRX8pES_7___rustc17rust_begin_unwind, symObjAddr: 0x1BC80, symBinAddr: 0x100150330, symSize: 0x30 }
  - { offset: 0x1A7B67, size: 0x8, addend: 0x0, symName: __RNvNtCsfJuDB63p7eE_3std9panicking12default_hook, symObjAddr: 0x3C3E9, symBinAddr: 0x10015E619, symSize: 0x137 }
  - { offset: 0x1A7D09, size: 0x8, addend: 0x0, symName: __RNvNtCsfJuDB63p7eE_3std9panicking14payload_as_str, symObjAddr: 0x3C5C0, symBinAddr: 0x10015E750, symSize: 0x7D }
  - { offset: 0x1A7E60, size: 0x8, addend: 0x0, symName: __RNvNtCsfJuDB63p7eE_3std9panicking15panic_with_hook, symObjAddr: 0x3C63D, symBinAddr: 0x10015E7CD, symSize: 0x3E3 }
  - { offset: 0x1A8792, size: 0x8, addend: 0x0, symName: __RNvNvNtCsfJuDB63p7eE_3std2fs4read5inner, symObjAddr: 0x48130, symBinAddr: 0x100163010, symSize: 0x2B0 }
  - { offset: 0x1A8DBF, size: 0x8, addend: 0x0, symName: __RNCNvNtCsfJuDB63p7eE_3std5alloc8rust_oom0B5_, symObjAddr: 0x1A5C0, symBinAddr: 0x10017B0B0, symSize: 0x2A }
  - { offset: 0x1A8E0F, size: 0x8, addend: 0x0, symName: __RNvCsGIExRX8pES_7___rustc11___rdl_alloc, symObjAddr: 0x1BA60, symBinAddr: 0x100150120, symSize: 0x70 }
  - { offset: 0x1A8E92, size: 0x8, addend: 0x0, symName: __RNvCsGIExRX8pES_7___rustc13___rdl_dealloc, symObjAddr: 0x1BAE0, symBinAddr: 0x100150190, symSize: 0x10 }
  - { offset: 0x1A8EC4, size: 0x8, addend: 0x0, symName: __RNvCsGIExRX8pES_7___rustc13___rdl_realloc, symObjAddr: 0x1BAF0, symBinAddr: 0x1001501A0, symSize: 0xA0 }
  - { offset: 0x1A8FA2, size: 0x8, addend: 0x0, symName: __RNvCsGIExRX8pES_7___rustc18___rdl_alloc_zeroed, symObjAddr: 0x1BCB0, symBinAddr: 0x100150360, symSize: 0x90 }
  - { offset: 0x1A904F, size: 0x8, addend: 0x0, symName: __RNvCsGIExRX8pES_7___rustc26___rust_alloc_error_handler, symObjAddr: 0x1BE30, symBinAddr: 0x10017B2F0, symSize: 0x20 }
  - { offset: 0x1A90BA, size: 0x8, addend: 0x0, symName: __RNvNtCsfJuDB63p7eE_3std5alloc24default_alloc_error_hook, symObjAddr: 0x3C0AD, symBinAddr: 0x10015E34D, symSize: 0x183 }
  - { offset: 0x1A9187, size: 0x8, addend: 0x0, symName: __RNvNtCsfJuDB63p7eE_3std5alloc8rust_oom, symObjAddr: 0x3C230, symBinAddr: 0x10017B9B0, symSize: 0x20 }
  - { offset: 0x1A91BE, size: 0x8, addend: 0x0, symName: __RNvNtCsfJuDB63p7eE_3std5panic19get_backtrace_style, symObjAddr: 0x3C260, symBinAddr: 0x10015E4D0, symSize: 0x140 }
  - { offset: 0x1A976E, size: 0x8, addend: 0x0, symName: __RNvNtCsfJuDB63p7eE_3std3env11current_dir, symObjAddr: 0x3AD90, symBinAddr: 0x10015E170, symSize: 0x1D0 }
  - { offset: 0x1A9CD2, size: 0x8, addend: 0x0, symName: __RNvNtCsfJuDB63p7eE_3std7process5abort, symObjAddr: 0x3C3E0, symBinAddr: 0x10017B9D0, symSize: 0x9 }
  - { offset: 0x1A9E58, size: 0x8, addend: 0x0, symName: __RINvMs0_NtNtCs8g0Wyh6G27a_6object4read7archiveNtB6_13ArchiveMember5parseRShECsfJuDB63p7eE_3std, symObjAddr: 0x3CA0, symBinAddr: 0x10013EB90, symSize: 0x430 }
  - { offset: 0x1AADBA, size: 0x8, addend: 0x0, symName: __RINvNtCs8Tvwocrg46H_4core3ptr13drop_in_placeINtNtCsdN4uhhpLgdG_5alloc5boxed3BoxNtNtCs1GaJtnexmR5_12panic_unwind3imp9ExceptionEEB1j_, symObjAddr: 0x0, symBinAddr: 0x100167210, symSize: 0x90 }
  - { offset: 0x1AADF0, size: 0x8, addend: 0x0, symName: __RINvNtCs8Tvwocrg46H_4core3ptr13drop_in_placeINtNtCsdN4uhhpLgdG_5alloc5boxed3BoxNtNtCs1GaJtnexmR5_12panic_unwind3imp9ExceptionEEB1j_, symObjAddr: 0x0, symBinAddr: 0x100167210, symSize: 0x90 }
  - { offset: 0x1AB08C, size: 0x8, addend: 0x0, symName: __RINvNtCs8Tvwocrg46H_4core3ptr13drop_in_placeNtNtCs1GaJtnexmR5_12panic_unwind3imp9ExceptionEBK_, symObjAddr: 0x90, symBinAddr: 0x1001672A0, symSize: 0x70 }
  - { offset: 0x1AB385, size: 0x8, addend: 0x0, symName: __RNvNvNtCs1GaJtnexmR5_12panic_unwind3imp5panic17exception_cleanup, symObjAddr: 0x200, symBinAddr: 0x1001673C0, symSize: 0x16 }
  - { offset: 0x1AB3A1, size: 0x8, addend: 0x0, symName: __RNvCsGIExRX8pES_7___rustc18___rust_start_panic, symObjAddr: 0x100, symBinAddr: 0x100167310, symSize: 0xB0 }
  - { offset: 0x1AB599, size: 0x8, addend: 0x0, symName: __RNvNvNtNtNtCskIEMZIyMyd7_6memchr4arch6x86_646memchr10memchr_raw6detect, symObjAddr: 0x20C0, symBinAddr: 0x1001676F0, symSize: 0x1C0 }
  - { offset: 0x1ABB95, size: 0x8, addend: 0x0, symName: __RNvNvNtNtNtCskIEMZIyMyd7_6memchr4arch6x86_646memchr10memchr_raw9find_sse2, symObjAddr: 0x2280, symBinAddr: 0x1001678B0, symSize: 0x1B0 }
  - { offset: 0x1AC165, size: 0x8, addend: 0x0, symName: __RNvNvNtNtNtCskIEMZIyMyd7_6memchr4arch6x86_646memchr11memchr2_raw6detect, symObjAddr: 0x2430, symBinAddr: 0x100167A60, symSize: 0x1A0 }
  - { offset: 0x1AC848, size: 0x8, addend: 0x0, symName: __RNvNvNtNtNtCskIEMZIyMyd7_6memchr4arch6x86_646memchr11memchr2_raw9find_sse2, symObjAddr: 0x25D0, symBinAddr: 0x100167C00, symSize: 0x1A0 }
  - { offset: 0x1AD116, size: 0x8, addend: 0x0, symName: __RINvNtCs8Tvwocrg46H_4core3ptr13drop_in_placeNtNtCsdN4uhhpLgdG_5alloc6string6StringEBK_, symObjAddr: 0x0, symBinAddr: 0x10016F080, symSize: 0x20 }
  - { offset: 0x1AD240, size: 0x8, addend: 0x0, symName: __RNvMs4_NtCsdN4uhhpLgdG_5alloc7raw_vecNtB5_11RawVecInner11finish_growB7_, symObjAddr: 0x3930, symBinAddr: 0x10017C8E0, symSize: 0xA0 }
  - { offset: 0x1AD418, size: 0x8, addend: 0x0, symName: __RINvNvMs2_NtCsdN4uhhpLgdG_5alloc7raw_vecINtB8_11RawVecInnerpE7reserve21do_reserve_and_handleNtNtBa_5alloc6GlobalEBa_, symObjAddr: 0x40, symBinAddr: 0x10017C810, symSize: 0x70 }
  - { offset: 0x1AD52E, size: 0x8, addend: 0x0, symName: __RNvMs3_NtCsdN4uhhpLgdG_5alloc7raw_vecINtB5_6RawVechE8grow_oneB7_, symObjAddr: 0x38D0, symBinAddr: 0x10017C880, symSize: 0x60 }
  - { offset: 0x1AD641, size: 0x8, addend: 0x0, symName: __RNvNtCsdN4uhhpLgdG_5alloc7raw_vec12handle_error, symObjAddr: 0x47D8, symBinAddr: 0x10017C998, symSize: 0x18 }
  - { offset: 0x1AD689, size: 0x8, addend: 0x0, symName: __RNvNtCsdN4uhhpLgdG_5alloc7raw_vec17capacity_overflow, symObjAddr: 0x47F0, symBinAddr: 0x10017C9B0, symSize: 0x1C }
  - { offset: 0x1AD7A6, size: 0x8, addend: 0x0, symName: __RNvNtCsdN4uhhpLgdG_5alloc5alloc18handle_alloc_error, symObjAddr: 0x47C6, symBinAddr: 0x10017C986, symSize: 0x12 }
  - { offset: 0x1AD82B, size: 0x8, addend: 0x0, symName: __RNvMNtCsdN4uhhpLgdG_5alloc6stringNtB2_6String15from_utf8_lossy, symObjAddr: 0x1070, symBinAddr: 0x10016F0A0, symSize: 0x250 }
  - { offset: 0x1ADECA, size: 0x8, addend: 0x0, symName: __RNvXsP_NtCsdN4uhhpLgdG_5alloc6stringNtB5_6StringINtNtCs8Tvwocrg46H_4core7convert4FromINtNtB7_6borrow3CoweEE4from, symObjAddr: 0x53B0, symBinAddr: 0x10016F640, symSize: 0xA0 }
  - { offset: 0x1AE024, size: 0x8, addend: 0x0, symName: __RNvXsZ_NtCsdN4uhhpLgdG_5alloc6stringNtB5_6StringNtNtCs8Tvwocrg46H_4core3fmt5Write10write_char, symObjAddr: 0x5510, symBinAddr: 0x10016F6E0, symSize: 0x110 }
  - { offset: 0x1AE1BC, size: 0x8, addend: 0x0, symName: __RNvXsZ_NtCsdN4uhhpLgdG_5alloc6stringNtB5_6StringNtNtCs8Tvwocrg46H_4core3fmt5Write9write_str, symObjAddr: 0x5620, symBinAddr: 0x10016F7F0, symSize: 0x60 }
  - { offset: 0x1AE522, size: 0x8, addend: 0x0, symName: __RNvNtCsdN4uhhpLgdG_5alloc4sync32arcinner_layout_for_value_layout, symObjAddr: 0x4760, symBinAddr: 0x10016F3E0, symSize: 0x66 }
  - { offset: 0x1AE53A, size: 0x8, addend: 0x0, symName: __RNvNtCsdN4uhhpLgdG_5alloc4sync32arcinner_layout_for_value_layout, symObjAddr: 0x4760, symBinAddr: 0x10016F3E0, symSize: 0x66 }
  - { offset: 0x1AE550, size: 0x8, addend: 0x0, symName: __RNvNtCsdN4uhhpLgdG_5alloc4sync32arcinner_layout_for_value_layout, symObjAddr: 0x4760, symBinAddr: 0x10016F3E0, symSize: 0x66 }
  - { offset: 0x1AE61E, size: 0x8, addend: 0x0, symName: __RNvXs0_NvXsf_NtNtCsdN4uhhpLgdG_5alloc5boxed7convertINtBd_3BoxDNtNtCs8Tvwocrg46H_4core5error5ErrorNtNtB12_6marker4SendNtB1z_4SyncEL_EINtNtB12_7convert4FromNtNtBf_6string6StringE4fromNtB5_11StringErrorNtNtB12_3fmt5Debug3fmt, symObjAddr: 0x4C50, symBinAddr: 0x10016F600, symSize: 0x20 }
  - { offset: 0x1AE6F8, size: 0x8, addend: 0x0, symName: __RNvXs_NvXsf_NtNtCsdN4uhhpLgdG_5alloc5boxed7convertINtBc_3BoxDNtNtCs8Tvwocrg46H_4core5error5ErrorNtNtB11_6marker4SendNtB1y_4SyncEL_EINtNtB11_7convert4FromNtNtBe_6string6StringE4fromNtB4_11StringErrorNtNtB11_3fmt7Display3fmt, symObjAddr: 0x57C0, symBinAddr: 0x10016F990, symSize: 0x20 }
  - { offset: 0x1AE7E2, size: 0x8, addend: 0x0, symName: __RNvMs_NtNtCsdN4uhhpLgdG_5alloc3ffi5c_strNtB4_7CString19__from_vec_unchecked, symObjAddr: 0x4530, symBinAddr: 0x10016F2F0, symSize: 0xF0 }
  - { offset: 0x1AEBFF, size: 0x8, addend: 0x0, symName: __RNvXs_NvMs_NtNtCsdN4uhhpLgdG_5alloc3ffi5c_strNtB9_7CString3newRShNtB4_11SpecNewImpl13spec_new_impl, symObjAddr: 0x5680, symBinAddr: 0x10016F850, symSize: 0x140 }
  - { offset: 0x1AEEA4, size: 0x8, addend: 0x0, symName: __RNvNvNtCsdN4uhhpLgdG_5alloc3fmt6format12format_inner, symObjAddr: 0x4910, symBinAddr: 0x10016F450, symSize: 0x1B0 }
  - { offset: 0x1AF1CB, size: 0x8, addend: 0x0, symName: __RINvNtCs8Tvwocrg46H_4core3ptr13drop_in_placeNtNtCsdN4uhhpLgdG_5alloc6string6StringEBK_, symObjAddr: 0x0, symBinAddr: 0x10016F080, symSize: 0x20 }
  - { offset: 0x1AF582, size: 0x8, addend: 0x0, symName: __RNvXsd_NtNtCs8Tvwocrg46H_4core5alloc6layoutNtB5_11LayoutErrorNtNtB9_3fmt5Debug3fmt, symObjAddr: 0x57E0, symBinAddr: 0x10016F9B0, symSize: 0x20 }
  - { offset: 0x1AF626, size: 0x8, addend: 0x0, symName: __RNvYNtNtCsdN4uhhpLgdG_5alloc6string6StringNtNtCs8Tvwocrg46H_4core3fmt5Write9write_fmtB6_, symObjAddr: 0x63C0, symBinAddr: 0x10016F9D0, symSize: 0x20 }
  - { offset: 0x1AF65D, size: 0x8, addend: 0x0, symName: __RNvXsK_NtCs8Tvwocrg46H_4core3fmtNtB5_5ErrorNtB5_5Debug3fmt, symObjAddr: 0x5300, symBinAddr: 0x10016F620, symSize: 0x20 }
  - { offset: 0x1AF6B2, size: 0x8, addend: 0x0, symName: __RINvNtCs8Tvwocrg46H_4core9panicking13assert_failedjjEB4_, symObjAddr: 0x34, symBinAddr: 0x10017C9D4, symSize: 0x34 }
  - { offset: 0x1AF6CD, size: 0x8, addend: 0x0, symName: __RINvNtCs8Tvwocrg46H_4core9panicking13assert_failedyyEB4_, symObjAddr: 0x68, symBinAddr: 0x10017CA08, symSize: 0x38 }
  - { offset: 0x1AF6F6, size: 0x8, addend: 0x0, symName: __RNvNtCs8Tvwocrg46H_4core9panicking14panic_nounwind, symObjAddr: 0xBAD0, symBinAddr: 0x10017CB40, symSize: 0x20 }
  - { offset: 0x1AF726, size: 0x8, addend: 0x0, symName: __RNvNtCs8Tvwocrg46H_4core9panicking16panic_in_cleanup, symObjAddr: 0xBB2D, symBinAddr: 0x10017CB6D, symSize: 0x13 }
  - { offset: 0x1AF741, size: 0x8, addend: 0x0, symName: __RNvNtCs8Tvwocrg46H_4core9panicking18panic_bounds_check, symObjAddr: 0xBB40, symBinAddr: 0x10017CB80, symSize: 0x40 }
  - { offset: 0x1AF771, size: 0x8, addend: 0x0, symName: __RNvNtCs8Tvwocrg46H_4core9panicking18panic_nounwind_fmt, symObjAddr: 0xBB80, symBinAddr: 0x10017CBC0, symSize: 0x33 }
  - { offset: 0x1AF7B8, size: 0x8, addend: 0x0, symName: __RNvNtCs8Tvwocrg46H_4core9panicking19assert_failed_inner, symObjAddr: 0xBBB3, symBinAddr: 0x10017CBF3, symSize: 0xEC }
  - { offset: 0x1AF7D3, size: 0x8, addend: 0x0, symName: __RNvNtCs8Tvwocrg46H_4core9panicking19panic_cannot_unwind, symObjAddr: 0xBC9F, symBinAddr: 0x10017CCDF, symSize: 0x21 }
  - { offset: 0x1AF7EE, size: 0x8, addend: 0x0, symName: __RNvNtCs8Tvwocrg46H_4core9panicking26panic_nounwind_nobacktrace, symObjAddr: 0xBCC0, symBinAddr: 0x10017CD00, symSize: 0x1A }
  - { offset: 0x1AF81E, size: 0x8, addend: 0x0, symName: __RNvNtCs8Tvwocrg46H_4core9panicking5panic, symObjAddr: 0xBD70, symBinAddr: 0x10017CD20, symSize: 0x10 }
  - { offset: 0x1AF84E, size: 0x8, addend: 0x0, symName: __RNvNtCs8Tvwocrg46H_4core9panicking9panic_fmt, symObjAddr: 0xBD80, symBinAddr: 0x10017CD30, symSize: 0x30 }
  - { offset: 0x1AF884, size: 0x8, addend: 0x0, symName: __RNvNtNtCs8Tvwocrg46H_4core9panicking11panic_const23panic_const_div_by_zero, symObjAddr: 0xD720, symBinAddr: 0x10017CE30, symSize: 0x20 }
  - { offset: 0x1AF89E, size: 0x8, addend: 0x0, symName: __RNvNtNtCs8Tvwocrg46H_4core9panicking11panic_const23panic_const_rem_by_zero, symObjAddr: 0xD760, symBinAddr: 0x10017CE50, symSize: 0x20 }
  - { offset: 0x1AFA5A, size: 0x8, addend: 0x0, symName: __RNvXs3_NtNtCs8Tvwocrg46H_4core3num5errorNtB5_13ParseIntErrorNtNtB9_3fmt7Display3fmt, symObjAddr: 0x19910, symBinAddr: 0x100174190, symSize: 0x30 }
  - { offset: 0x1AFAF1, size: 0x8, addend: 0x0, symName: __RNvXs_NtNtCs8Tvwocrg46H_4core3ops5rangeINtB4_5RangejENtNtB8_3fmt5Debug3fmtB8_, symObjAddr: 0x1C800, symBinAddr: 0x100174810, symSize: 0x50 }
  - { offset: 0x1AFB77, size: 0x8, addend: 0x0, symName: __RNvMsa_NtCs8Tvwocrg46H_4core3fmtNtB5_9Formatter10debug_list, symObjAddr: 0x8230, symBinAddr: 0x100170400, symSize: 0x40 }
  - { offset: 0x1AFBB9, size: 0x8, addend: 0x0, symName: __RNvMsa_NtCs8Tvwocrg46H_4core3fmtNtB5_9Formatter11debug_tuple, symObjAddr: 0x8270, symBinAddr: 0x100170440, symSize: 0x50 }
  - { offset: 0x1AFC11, size: 0x8, addend: 0x0, symName: __RNvMsa_NtCs8Tvwocrg46H_4core3fmtNtB5_9Formatter12debug_struct, symObjAddr: 0x82C0, symBinAddr: 0x100170490, symSize: 0x40 }
  - { offset: 0x1AFC60, size: 0x8, addend: 0x0, symName: __RNvMsa_NtCs8Tvwocrg46H_4core3fmtNtB5_9Formatter12pad_integral, symObjAddr: 0x8300, symBinAddr: 0x1001704D0, symSize: 0x490 }
  - { offset: 0x1AFF3C, size: 0x8, addend: 0x0, symName: __RNvMsa_NtCs8Tvwocrg46H_4core3fmtNtB5_9Formatter25debug_tuple_field1_finish, symObjAddr: 0x8C40, symBinAddr: 0x100170960, symSize: 0x140 }
  - { offset: 0x1B015E, size: 0x8, addend: 0x0, symName: __RNvMsa_NtCs8Tvwocrg46H_4core3fmtNtB5_9Formatter25debug_tuple_field2_finish, symObjAddr: 0x8D80, symBinAddr: 0x100170AA0, symSize: 0x1A0 }
  - { offset: 0x1B048C, size: 0x8, addend: 0x0, symName: __RNvMsa_NtCs8Tvwocrg46H_4core3fmtNtB5_9Formatter26debug_struct_field1_finish, symObjAddr: 0x9A00, symBinAddr: 0x100170C40, symSize: 0xB0 }
  - { offset: 0x1B056B, size: 0x8, addend: 0x0, symName: __RNvMsa_NtCs8Tvwocrg46H_4core3fmtNtB5_9Formatter26debug_struct_field2_finish, symObjAddr: 0x9AB0, symBinAddr: 0x100170CF0, symSize: 0xD0 }
  - { offset: 0x1B064A, size: 0x8, addend: 0x0, symName: __RNvMsa_NtCs8Tvwocrg46H_4core3fmtNtB5_9Formatter3pad, symObjAddr: 0x9F80, symBinAddr: 0x100170DC0, symSize: 0x3C0 }
  - { offset: 0x1B08C9, size: 0x8, addend: 0x0, symName: __RNvMsa_NtCs8Tvwocrg46H_4core3fmtNtB5_9Formatter9write_str, symObjAddr: 0xA3D0, symBinAddr: 0x100171180, symSize: 0x20 }
  - { offset: 0x1B0A1C, size: 0x8, addend: 0x0, symName: __RNvMsf_NtNtNtCs8Tvwocrg46H_4core3fmt3num3impy4__fmt, symObjAddr: 0xA7A0, symBinAddr: 0x1001711A0, symSize: 0xF0 }
  - { offset: 0x1B0B1F, size: 0x8, addend: 0x0, symName: __RNvXNtNtNtCs8Tvwocrg46H_4core3fmt3num3imphNtB6_7Display3fmt, symObjAddr: 0x139A0, symBinAddr: 0x100172C70, symSize: 0xA0 }
  - { offset: 0x1B0C43, size: 0x8, addend: 0x0, symName: __RNvXs8_NtNtNtCs8Tvwocrg46H_4core3fmt3num3impmNtB9_7Display3fmt, symObjAddr: 0x1ABE0, symBinAddr: 0x1001742C0, symSize: 0x100 }
  - { offset: 0x1B0D5C, size: 0x8, addend: 0x0, symName: __RNvXs9_NtNtNtCs8Tvwocrg46H_4core3fmt3num3implNtB9_7Display3fmt, symObjAddr: 0x1AF10, symBinAddr: 0x1001743C0, symSize: 0x110 }
  - { offset: 0x1B0E97, size: 0x8, addend: 0x0, symName: __RNvXsd_NtNtNtCs8Tvwocrg46H_4core3fmt3num3impyNtB9_7Display3fmt, symObjAddr: 0x1DDB0, symBinAddr: 0x1001748C0, symSize: 0x110 }
  - { offset: 0x1B0FB1, size: 0x8, addend: 0x0, symName: __RNvXs6_NtNtCs8Tvwocrg46H_4core3fmt3numjNtB7_8LowerHex3fmt, symObjAddr: 0x1A1D0, symBinAddr: 0x1001741C0, symSize: 0x70 }
  - { offset: 0x1B1048, size: 0x8, addend: 0x0, symName: __RNvXsu_NtNtCs8Tvwocrg46H_4core3fmt3nummNtB7_8LowerHex3fmt, symObjAddr: 0x1F770, symBinAddr: 0x100174FC0, symSize: 0x60 }
  - { offset: 0x1B10DF, size: 0x8, addend: 0x0, symName: __RNvXsv_NtNtCs8Tvwocrg46H_4core3fmt3numlNtB7_8LowerHex3fmt, symObjAddr: 0x1F7F0, symBinAddr: 0x100175020, symSize: 0x60 }
  - { offset: 0x1B118C, size: 0x8, addend: 0x0, symName: __RNvXsw_NtNtCs8Tvwocrg46H_4core3fmt3nummNtB7_8UpperHex3fmt, symObjAddr: 0x1F880, symBinAddr: 0x100175080, symSize: 0x60 }
  - { offset: 0x1B1223, size: 0x8, addend: 0x0, symName: __RNvXsx_NtNtCs8Tvwocrg46H_4core3fmt3numlNtB7_8UpperHex3fmt, symObjAddr: 0x1F910, symBinAddr: 0x1001750E0, symSize: 0x60 }
  - { offset: 0x1B12F8, size: 0x8, addend: 0x0, symName: __RNvXs8_NtNtCs8Tvwocrg46H_4core3fmt3numjNtB7_8UpperHex3fmt, symObjAddr: 0x1A8B0, symBinAddr: 0x100174250, symSize: 0x70 }
  - { offset: 0x1B138F, size: 0x8, addend: 0x0, symName: __RNvXse_NtNtCs8Tvwocrg46H_4core3fmt3numhNtB7_8LowerHex3fmt, symObjAddr: 0x1DFB0, symBinAddr: 0x1001749D0, symSize: 0x60 }
  - { offset: 0x1B1426, size: 0x8, addend: 0x0, symName: __RNvXsg_NtNtCs8Tvwocrg46H_4core3fmt3numhNtB7_8UpperHex3fmt, symObjAddr: 0x1E330, symBinAddr: 0x100174A30, symSize: 0x60 }
  - { offset: 0x1B14B0, size: 0x8, addend: 0x0, symName: __RNvXsX_NtNtCs8Tvwocrg46H_4core3fmt3numyNtB7_5Debug3fmt, symObjAddr: 0x1C230, symBinAddr: 0x1001744D0, symSize: 0x1A0 }
  - { offset: 0x1B1643, size: 0x8, addend: 0x0, symName: __RNvXsZ_NtNtCs8Tvwocrg46H_4core3fmt3numjNtB7_5Debug3fmt, symObjAddr: 0x1C3E0, symBinAddr: 0x100174670, symSize: 0x1A0 }
  - { offset: 0x1B1897, size: 0x8, addend: 0x0, symName: __RNvMs1_NtNtCs8Tvwocrg46H_4core3fmt8buildersNtB5_11DebugStruct5field, symObjAddr: 0x5790, symBinAddr: 0x10016FCD0, symSize: 0x190 }
  - { offset: 0x1B1AC4, size: 0x8, addend: 0x0, symName: __RNvMs1_NtNtCs8Tvwocrg46H_4core3fmt8buildersNtB5_11DebugStruct6finish, symObjAddr: 0x5920, symBinAddr: 0x10016FE60, symSize: 0x60 }
  - { offset: 0x1B1BCF, size: 0x8, addend: 0x0, symName: __RNvMs2_NtNtCs8Tvwocrg46H_4core3fmt8buildersNtB5_10DebugTuple5field, symObjAddr: 0x5B80, symBinAddr: 0x10016FEC0, symSize: 0x130 }
  - { offset: 0x1B1D4E, size: 0x8, addend: 0x0, symName: __RNvMs2_NtNtCs8Tvwocrg46H_4core3fmt8buildersNtB5_10DebugTuple6finish, symObjAddr: 0x5CB0, symBinAddr: 0x10016FFF0, symSize: 0x90 }
  - { offset: 0x1B1E12, size: 0x8, addend: 0x0, symName: __RNvMs4_NtNtCs8Tvwocrg46H_4core3fmt8buildersNtB5_8DebugSet5entry, symObjAddr: 0x6E30, symBinAddr: 0x1001702A0, symSize: 0x120 }
  - { offset: 0x1B200A, size: 0x8, addend: 0x0, symName: __RNvMs5_NtNtCs8Tvwocrg46H_4core3fmt8buildersNtB5_9DebugList6finish, symObjAddr: 0x7050, symBinAddr: 0x1001703C0, symSize: 0x40 }
  - { offset: 0x1B2099, size: 0x8, addend: 0x0, symName: __RNvXs0_NtNtCs8Tvwocrg46H_4core3fmt8buildersNtB5_10PadAdapterNtB7_5Write10write_char, symObjAddr: 0x13B40, symBinAddr: 0x100172D10, symSize: 0x60 }
  - { offset: 0x1B20C3, size: 0x8, addend: 0x0, symName: __RNvXs0_NtNtCs8Tvwocrg46H_4core3fmt8buildersNtB5_10PadAdapterNtB7_5Write9write_str, symObjAddr: 0x13BA0, symBinAddr: 0x100172D70, symSize: 0x280 }
  - { offset: 0x1B23CB, size: 0x8, addend: 0x0, symName: __RNvNvMsa_NtCs8Tvwocrg46H_4core3fmtNtB7_9Formatter12pad_integral12write_prefix, symObjAddr: 0x128A0, symBinAddr: 0x100172C10, symSize: 0x60 }
  - { offset: 0x1B2413, size: 0x8, addend: 0x0, symName: __RNvXs1g_NtCs8Tvwocrg46H_4core3fmtRDNtB6_5DebugEL_Bx_3fmtB8_, symObjAddr: 0x16680, symBinAddr: 0x1001733F0, symSize: 0x20 }
  - { offset: 0x1B2435, size: 0x8, addend: 0x0, symName: __RNvXs1g_NtCs8Tvwocrg46H_4core3fmtRjNtB6_5Debug3fmtB8_, symObjAddr: 0x168E0, symBinAddr: 0x100173410, symSize: 0x10 }
  - { offset: 0x1B2449, size: 0x8, addend: 0x0, symName: __RNvXs1g_NtCs8Tvwocrg46H_4core3fmtRyNtB6_5Debug3fmtB8_, symObjAddr: 0x168F0, symBinAddr: 0x100173420, symSize: 0x10 }
  - { offset: 0x1B2465, size: 0x8, addend: 0x0, symName: __RNvNtCs8Tvwocrg46H_4core3fmt17pointer_fmt_inner, symObjAddr: 0xB1C0, symBinAddr: 0x1001718F0, symSize: 0xA0 }
  - { offset: 0x1B2580, size: 0x8, addend: 0x0, symName: __RNvNtCs8Tvwocrg46H_4core3fmt5write, symObjAddr: 0xB260, symBinAddr: 0x100171990, symSize: 0x1C0 }
  - { offset: 0x1B284D, size: 0x8, addend: 0x0, symName: __RNvXsb_NtCs8Tvwocrg46H_4core3fmtNtB5_9FormatterNtB5_5Write10write_char, symObjAddr: 0x1D510, symBinAddr: 0x100174860, symSize: 0x20 }
  - { offset: 0x1B2876, size: 0x8, addend: 0x0, symName: __RNvXsi_NtCs8Tvwocrg46H_4core3fmteNtB5_7Display3fmt, symObjAddr: 0x1E770, symBinAddr: 0x100174E10, symSize: 0x20 }
  - { offset: 0x1B289F, size: 0x8, addend: 0x0, symName: __RNvXs1i_NtCs8Tvwocrg46H_4core3fmtReNtB6_7Display3fmtB8_, symObjAddr: 0x16950, symBinAddr: 0x100173430, symSize: 0x20 }
  - { offset: 0x1B28E6, size: 0x8, addend: 0x0, symName: __RNvXsj_NtCs8Tvwocrg46H_4core3fmtcNtB5_5Debug3fmt, symObjAddr: 0x1E800, symBinAddr: 0x100174E30, symSize: 0xA0 }
  - { offset: 0x1B2A29, size: 0x8, addend: 0x0, symName: __RNvYNtNtNtCs8Tvwocrg46H_4core3fmt8builders10PadAdapterNtB6_5Write9write_fmtB8_, symObjAddr: 0x1FE00, symBinAddr: 0x100175140, symSize: 0x17 }
  - { offset: 0x1B2A6E, size: 0x8, addend: 0x0, symName: __RNvXs8_NtCs8Tvwocrg46H_4core3fmtNtB5_9ArgumentsNtB5_7Display3fmt, symObjAddr: 0x1A820, symBinAddr: 0x100174230, symSize: 0x20 }
  - { offset: 0x1B2AAC, size: 0x8, addend: 0x0, symName: __RNvXsh_NtCs8Tvwocrg46H_4core3fmteNtB5_5Debug3fmt, symObjAddr: 0x1E390, symBinAddr: 0x100174A90, symSize: 0x380 }
  - { offset: 0x1B2F46, size: 0x8, addend: 0x0, symName: __RNvXsk_NtCs8Tvwocrg46H_4core3fmtcNtB5_7Display3fmt, symObjAddr: 0x1F030, symBinAddr: 0x100174ED0, symSize: 0xD0 }
  - { offset: 0x1B3143, size: 0x8, addend: 0x0, symName: __RNvNtNtCs8Tvwocrg46H_4core5slice5index16slice_index_fail, symObjAddr: 0xD190, symBinAddr: 0x10017CD60, symSize: 0xD0 }
  - { offset: 0x1B34A9, size: 0x8, addend: 0x0, symName: __RNvNtNtCs8Tvwocrg46H_4core5slice6memchr14memchr_aligned, symObjAddr: 0xD260, symBinAddr: 0x100172720, symSize: 0xE0 }
  - { offset: 0x1B35F5, size: 0x8, addend: 0x0, symName: __RNvNtNtNtNtCs8Tvwocrg46H_4core5slice4sort6shared9smallsort22panic_on_ord_violation, symObjAddr: 0xF640, symBinAddr: 0x10017CE70, symSize: 0x20 }
  - { offset: 0x1B361E, size: 0x8, addend: 0x0, symName: __RNvNtNtNtNtCs8Tvwocrg46H_4core5slice4sort6stable5drift11sqrt_approx, symObjAddr: 0xF660, symBinAddr: 0x100172BE0, symSize: 0x30 }
  - { offset: 0x1B36DA, size: 0x8, addend: 0x0, symName: __RNvNvNtCs8Tvwocrg46H_4core5slice20copy_from_slice_impl17len_mismatch_fail, symObjAddr: 0x12900, symBinAddr: 0x10017CE90, symSize: 0x40 }
  - { offset: 0x1B377B, size: 0x8, addend: 0x0, symName: __RNvXs2_NtNtCs8Tvwocrg46H_4core5slice5asciiNtB5_11EscapeAsciiNtNtB9_3fmt7Display3fmt, symObjAddr: 0x18D50, symBinAddr: 0x1001738C0, symSize: 0x220 }
  - { offset: 0x1B3E1B, size: 0x8, addend: 0x0, symName: __RNvNtCs8Tvwocrg46H_4core6option13expect_failed, symObjAddr: 0xBA10, symBinAddr: 0x10017CA80, symSize: 0x40 }
  - { offset: 0x1B3E4D, size: 0x8, addend: 0x0, symName: __RNvNtCs8Tvwocrg46H_4core6option13unwrap_failed, symObjAddr: 0xBA50, symBinAddr: 0x10017CAC0, symSize: 0x20 }
  - { offset: 0x1B3EAC, size: 0x8, addend: 0x0, symName: __RNvMNtNtCs8Tvwocrg46H_4core4char7methodsc16escape_debug_ext, symObjAddr: 0x3DF0, symBinAddr: 0x10016F9F0, symSize: 0x2E0 }
  - { offset: 0x1B4170, size: 0x8, addend: 0x0, symName: __RNvXsc_NtCs8Tvwocrg46H_4core4charNtB5_11EscapeDebugNtNtB7_3fmt7Display3fmt, symObjAddr: 0x1D6C0, symBinAddr: 0x100174880, symSize: 0x40 }
  - { offset: 0x1B43D0, size: 0x8, addend: 0x0, symName: __RNvNtCs8Tvwocrg46H_4core6result13unwrap_failed, symObjAddr: 0xBA70, symBinAddr: 0x10017CAE0, symSize: 0x60 }
  - { offset: 0x1B43F8, size: 0x8, addend: 0x0, symName: __RNvNtNtCs8Tvwocrg46H_4core3str8converts9from_utf8, symObjAddr: 0xCF60, symBinAddr: 0x100172510, symSize: 0x210 }
  - { offset: 0x1B461C, size: 0x8, addend: 0x0, symName: __RNvNtNtCs8Tvwocrg46H_4core3str5count14do_count_chars, symObjAddr: 0xC700, symBinAddr: 0x100171EC0, symSize: 0x5A0 }
  - { offset: 0x1B4647, size: 0x8, addend: 0x0, symName: __RNvNtNtCs8Tvwocrg46H_4core3str5count14do_count_chars, symObjAddr: 0xC700, symBinAddr: 0x100171EC0, symSize: 0x5A0 }
  - { offset: 0x1B4AAF, size: 0x8, addend: 0x0, symName: __RNvNtNtCs8Tvwocrg46H_4core3str5count23char_count_general_case, symObjAddr: 0xCCA0, symBinAddr: 0x100172460, symSize: 0xB0 }
  - { offset: 0x1B4BF3, size: 0x8, addend: 0x0, symName: __RNvMsu_NtNtCs8Tvwocrg46H_4core3str7patternNtB5_11StrSearcher3new, symObjAddr: 0xAB60, symBinAddr: 0x100171290, symSize: 0x660 }
  - { offset: 0x1B4EEC, size: 0x8, addend: 0x0, symName: __RNvNtCs8Tvwocrg46H_4core3str16slice_error_fail, symObjAddr: 0xB460, symBinAddr: 0x10017CA40, symSize: 0x10 }
  - { offset: 0x1B4FCE, size: 0x8, addend: 0x0, symName: __RNvNtCs8Tvwocrg46H_4core3str19slice_error_fail_rt, symObjAddr: 0xB490, symBinAddr: 0x100171B50, symSize: 0x370 }
  - { offset: 0x1B5377, size: 0x8, addend: 0x0, symName: __RNvXs0_NtNtCs8Tvwocrg46H_4core3str5lossyNtB5_5DebugNtNtB9_3fmt5Debug3fmt, symObjAddr: 0x14480, symBinAddr: 0x100172FF0, symSize: 0x3F0 }
  - { offset: 0x1B577D, size: 0x8, addend: 0x0, symName: __RNvXs2_NtNtCs8Tvwocrg46H_4core3str5lossyNtB5_10Utf8ChunksNtNtNtNtB9_4iter6traits8iterator8Iterator4next, symObjAddr: 0x18BB0, symBinAddr: 0x100173720, symSize: 0x1A0 }
  - { offset: 0x1B5BE7, size: 0x8, addend: 0x0, symName: __RNvNtNtNtCs8Tvwocrg46H_4core7unicode12unicode_data15grapheme_extend11lookup_slow, symObjAddr: 0xE890, symBinAddr: 0x100172AD0, symSize: 0x110 }
  - { offset: 0x1B5E0F, size: 0x8, addend: 0x0, symName: __RNvNtNtCs8Tvwocrg46H_4core7unicode9printable12is_printable, symObjAddr: 0xD450, symBinAddr: 0x100172800, symSize: 0x2D0 }
  - { offset: 0x1B66CC, size: 0x8, addend: 0x0, symName: __RNvMs3_NtNtCs8Tvwocrg46H_4core3ffi5c_strNtB5_4CStr19from_bytes_with_nul, symObjAddr: 0x6B00, symBinAddr: 0x100170080, symSize: 0x120 }
  - { offset: 0x1B67AC, size: 0x8, addend: 0x0, symName: __RNvMs3_NtNtCs8Tvwocrg46H_4core3ffi5c_strNtB5_4CStr20from_bytes_until_nul, symObjAddr: 0x6C20, symBinAddr: 0x1001701A0, symSize: 0xF0 }
  - { offset: 0x1B6892, size: 0x8, addend: 0x0, symName: __RNvMs3_NtNtCs8Tvwocrg46H_4core3ffi5c_strNtB5_4CStr6to_str, symObjAddr: 0x6D10, symBinAddr: 0x100170290, symSize: 0x10 }
  - { offset: 0x1B68D9, size: 0x8, addend: 0x0, symName: __RNvXs1_NtNtCs8Tvwocrg46H_4core3ffi5c_strNtB5_4CStrNtNtB9_3fmt5Debug3fmt, symObjAddr: 0x15C10, symBinAddr: 0x1001733E0, symSize: 0x10 }
  - { offset: 0x1B693B, size: 0x8, addend: 0x0, symName: __RNvNtCs8Tvwocrg46H_4core4cell22panic_already_borrowed, symObjAddr: 0xB800, symBinAddr: 0x10017CA50, symSize: 0x30 }
  - { offset: 0x1B6989, size: 0x8, addend: 0x0, symName: __RNvXsr_NtCs8Tvwocrg46H_4core4cellNtB5_14BorrowMutErrorNtNtB7_3fmt7Display3fmt, symObjAddr: 0x1F5B0, symBinAddr: 0x100174FA0, symSize: 0x20 }
  - { offset: 0x1B6A0B, size: 0x8, addend: 0x0, symName: __RNvXs3_NtCs8Tvwocrg46H_4core5asciiNtB5_13EscapeDefaultNtNtB7_3fmt7Display3fmt, symObjAddr: 0x19820, symBinAddr: 0x100174160, symSize: 0x30 }
  - { offset: 0x1B6B1C, size: 0x8, addend: 0x0, symName: __RNvXs2_NtCs8Tvwocrg46H_4core4bstrNtB5_7ByteStrNtNtB7_3fmt5Debug3fmt, symObjAddr: 0x18010, symBinAddr: 0x100173450, symSize: 0x2D0 }
  - { offset: 0x1B6D9D, size: 0x8, addend: 0x0, symName: __RNvXs3_NtCs8Tvwocrg46H_4core4bstrNtB5_7ByteStrNtNtB7_3fmt7Display3fmt, symObjAddr: 0x191A0, symBinAddr: 0x100173AE0, symSize: 0x680 }
...
