---
triple:          'arm64-apple-darwin'
binary-path:     '/Users/paulgrey/Library/Developer/Xcode/DerivedData/PulseWallet-dstctvseqxzcuahdfdqfcgscqqus/Build/Intermediates.noindex/ArchiveIntermediates/PulseWallet/InstallationBuildProductsLocation/Applications/PulseVM.app/Contents/MacOS/PulseVM'
relocations:
  - { offset: 0x13E421, size: 0x8, addend: 0x0, symName: __RINvMNtNtCs6sq8b9ugfBC_4core4cell4onceINtB3_8OnceCellINtNtB7_6result6ResultINtNtB7_6option6OptionINtNtCs8dnTdrJsiec_5alloc5boxed3BoxINtNtCs3S5NQbda6bJ_9addr2line4unit7DwoUnitINtNtNtCsixjwb4TfRM4_5gimli4read12endian_slice11EndianSliceNtNtB2T_9endianity12LittleEndianEEEENtB2R_5ErrorEE8try_initNCINvB2_11get_or_initNCNCNvMB29_INtB29_7ResUnitB2M_E14dwarf_and_units4_00E0zECsaLOjE9VYtxK_3std, symObjAddr: 0x0, symBinAddr: 0x100131430, symSize: 0x48 }
  - { offset: 0x13EC09, size: 0x8, addend: 0x0, symName: __RINvMNtNtCs6sq8b9ugfBC_4core4cell4onceINtB3_8OnceCellINtNtB7_6result6ResultINtNtB7_6option6OptionINtNtCs8dnTdrJsiec_5alloc5boxed3BoxINtNtCs3S5NQbda6bJ_9addr2line4unit7DwoUnitINtNtNtCsixjwb4TfRM4_5gimli4read12endian_slice11EndianSliceNtNtB2T_9endianity12LittleEndianEEEENtB2R_5ErrorEE8try_initNCINvB2_11get_or_initNCNCNvMB29_INtB29_7ResUnitB2M_E14dwarf_and_units4_00E0zECsaLOjE9VYtxK_3std, symObjAddr: 0x0, symBinAddr: 0x100131430, symSize: 0x48 }
  - { offset: 0x13EC28, size: 0x8, addend: 0x0, symName: __RINvMNtNtCs6sq8b9ugfBC_4core4cell4onceINtB3_8OnceCellINtNtB7_6result6ResultINtNtB7_6option6OptionINtNtCs8dnTdrJsiec_5alloc5boxed3BoxINtNtCs3S5NQbda6bJ_9addr2line4unit7DwoUnitINtNtNtCsixjwb4TfRM4_5gimli4read12endian_slice11EndianSliceNtNtB2T_9endianity12LittleEndianEEEENtB2R_5ErrorEE8try_initNCINvB2_11get_or_initNCNCNvMB29_INtB29_7ResUnitB2M_E14dwarf_and_units4_00E0zECsaLOjE9VYtxK_3std, symObjAddr: 0x0, symBinAddr: 0x100131430, symSize: 0x48 }
  - { offset: 0x13EC3E, size: 0x8, addend: 0x0, symName: __RINvMNtNtCs6sq8b9ugfBC_4core4cell4onceINtB3_8OnceCellINtNtB7_6result6ResultINtNtB7_6option6OptionINtNtCs8dnTdrJsiec_5alloc5boxed3BoxINtNtCs3S5NQbda6bJ_9addr2line4unit7DwoUnitINtNtNtCsixjwb4TfRM4_5gimli4read12endian_slice11EndianSliceNtNtB2T_9endianity12LittleEndianEEEENtB2R_5ErrorEE8try_initNCINvB2_11get_or_initNCNCNvMB29_INtB29_7ResUnitB2M_E14dwarf_and_units4_00E0zECsaLOjE9VYtxK_3std, symObjAddr: 0x0, symBinAddr: 0x100131430, symSize: 0x48 }
  - { offset: 0x13EC53, size: 0x8, addend: 0x0, symName: __RINvMNtNtCs6sq8b9ugfBC_4core4cell4onceINtB3_8OnceCellINtNtB7_6result6ResultINtNtB7_6option6OptionINtNtCs8dnTdrJsiec_5alloc5boxed3BoxINtNtCs3S5NQbda6bJ_9addr2line4unit7DwoUnitINtNtNtCsixjwb4TfRM4_5gimli4read12endian_slice11EndianSliceNtNtB2T_9endianity12LittleEndianEEEENtB2R_5ErrorEE8try_initNCINvB2_11get_or_initNCNCNvMB29_INtB29_7ResUnitB2M_E14dwarf_and_units4_00E0zECsaLOjE9VYtxK_3std, symObjAddr: 0x0, symBinAddr: 0x100131430, symSize: 0x48 }
  - { offset: 0x13EC96, size: 0x8, addend: 0x0, symName: __RINvMNtNtCs6sq8b9ugfBC_4core4cell4onceINtB3_8OnceCellINtNtB7_6result6ResultINtNtB7_6option6OptionINtNtCs8dnTdrJsiec_5alloc5boxed3BoxINtNtCs3S5NQbda6bJ_9addr2line4unit7DwoUnitINtNtNtCsixjwb4TfRM4_5gimli4read12endian_slice11EndianSliceNtNtB2T_9endianity12LittleEndianEEEENtB2R_5ErrorEE8try_initNCINvB2_11get_or_initNCNvMB29_INtB29_7ResUnitB2M_E14dwarf_and_units2_0E0zECsaLOjE9VYtxK_3std, symObjAddr: 0x48, symBinAddr: 0x100131478, symSize: 0x68 }
  - { offset: 0x13ED39, size: 0x8, addend: 0x0, symName: __RINvMNtNtCs6sq8b9ugfBC_4core4cell4onceINtB3_8OnceCellINtNtB7_6result6ResultINtNtCs3S5NQbda6bJ_9addr2line8function8FunctionINtNtNtCsixjwb4TfRM4_5gimli4read12endian_slice11EndianSliceNtNtB23_9endianity12LittleEndianEENtB21_5ErrorEE8try_initNCINvB2_11get_or_initNCNvMs_B1e_INtB1e_12LazyFunctionB1W_E6borrow0E0zECsaLOjE9VYtxK_3std, symObjAddr: 0xB0, symBinAddr: 0x1001314E0, symSize: 0x62C }
  - { offset: 0x13FACA, size: 0x8, addend: 0x0, symName: __RINvMNtNtCs6sq8b9ugfBC_4core4cell4onceINtB3_8OnceCellINtNtB7_6result6ResultINtNtCs3S5NQbda6bJ_9addr2line8function9FunctionsINtNtNtCsixjwb4TfRM4_5gimli4read12endian_slice11EndianSliceNtNtB24_9endianity12LittleEndianEENtB22_5ErrorEE8try_initNCINvB2_11get_or_initNCNvMB1e_INtB1e_13LazyFunctionsB1X_E6borrow0E0zECsaLOjE9VYtxK_3std, symObjAddr: 0x6DC, symBinAddr: 0x100131B0C, symSize: 0xC08 }
  - { offset: 0x1416D5, size: 0x8, addend: 0x0, symName: __RINvMNtNtCs6sq8b9ugfBC_4core4cell4onceINtB3_8OnceCellINtNtB7_6result6ResultNtNtCs3S5NQbda6bJ_9addr2line4line5LinesNtNtCsixjwb4TfRM4_5gimli4read5ErrorEE8try_initNCINvB2_11get_or_initNCINvMB1d_NtB1d_9LazyLines6borrowINtNtB1Q_12endian_slice11EndianSliceNtNtB1S_9endianity12LittleEndianEE0E0zECsaLOjE9VYtxK_3std, symObjAddr: 0x12E4, symBinAddr: 0x100132714, symSize: 0x1868 }
  - { offset: 0x14529C, size: 0x8, addend: 0x0, symName: __RINvMNtNtCs6sq8b9ugfBC_4core4cell4onceINtB3_8OnceCellNtNtNtCsaLOjE9VYtxK_3std6thread6thread6ThreadE8try_initNCINvB2_11get_or_initNvNtBT_7current18current_or_unnamedE0zEBV_, symObjAddr: 0x2B4C, symBinAddr: 0x100133F7C, symSize: 0xFC }
  - { offset: 0x145A1F, size: 0x8, addend: 0x0, symName: __RNSNvYNCNCNvNtNtCsaLOjE9VYtxK_3std3sys9backtrace10__print_fmts_00INtNtNtCs6sq8b9ugfBC_4core3ops8function6FnOnceTRNtNtNtBe_12backtrace_rs9symbolize6SymbolEE9call_once6vtableBe_, symObjAddr: 0x15D34, symBinAddr: 0x10010E76C, symSize: 0x4 }
  - { offset: 0x145A3D, size: 0x8, addend: 0x0, symName: __RNSNvYNCNCNvNtNtCsaLOjE9VYtxK_3std3sys9backtrace10__print_fmts_00INtNtNtCs6sq8b9ugfBC_4core3ops8function6FnOnceTRNtNtNtBe_12backtrace_rs9symbolize6SymbolEE9call_once6vtableBe_, symObjAddr: 0x15D34, symBinAddr: 0x10010E76C, symSize: 0x4 }
  - { offset: 0x145A5C, size: 0x8, addend: 0x0, symName: __RNSNvYNCNvNtNtCsaLOjE9VYtxK_3std3sys9backtrace10__print_fmt0INtNtNtCs6sq8b9ugfBC_4core3ops8function6FnOnceTQNtNtB13_3fmt9FormatterNtNtNtBc_12backtrace_rs5types17BytesOrWideStringEE9call_once6vtableBc_, symObjAddr: 0x15D78, symBinAddr: 0x10010E770, symSize: 0xB0 }
  - { offset: 0x145CFD, size: 0x8, addend: 0x0, symName: __RNSNvYNCNvNtNtCsaLOjE9VYtxK_3std3sys9backtrace10__print_fmts_0INtNtNtCs6sq8b9ugfBC_4core3ops8function6FnOnceTRNtNtNtBc_12backtrace_rs9backtrace5FrameEE9call_once6vtableBc_, symObjAddr: 0x15E28, symBinAddr: 0x10010E820, symSize: 0x4 }
  - { offset: 0x145D1B, size: 0x8, addend: 0x0, symName: __RNSNvYNCNvNtNtCsaLOjE9VYtxK_3std3sys9backtrace10__print_fmts_0INtNtNtCs6sq8b9ugfBC_4core3ops8function6FnOnceTRNtNtNtBc_12backtrace_rs9backtrace5FrameEE9call_once6vtableBc_, symObjAddr: 0x15E28, symBinAddr: 0x10010E820, symSize: 0x4 }
  - { offset: 0x145D3A, size: 0x8, addend: 0x0, symName: __RNSNvYNCNvNtNtNtCsaLOjE9VYtxK_3std3sys11personality3gcc14find_eh_action0INtNtNtCs6sq8b9ugfBC_4core3ops8function6FnOnceuE9call_once6vtableBe_, symObjAddr: 0x15E2C, symBinAddr: 0x10010E824, symSize: 0xC }
  - { offset: 0x145D8D, size: 0x8, addend: 0x0, symName: __RNSNvYNCNvNtNtNtCsaLOjE9VYtxK_3std3sys11personality3gcc14find_eh_actions_0INtNtNtCs6sq8b9ugfBC_4core3ops8function6FnOnceuE9call_once6vtableBe_, symObjAddr: 0x15E38, symBinAddr: 0x10010E830, symSize: 0xC }
  - { offset: 0x1471C6, size: 0x8, addend: 0x0, symName: __RINvNtNtNtCs6sq8b9ugfBC_4core5slice4sort6stable14driftsort_mainNtNtCs3S5NQbda6bJ_9addr2line4line12LineSequenceNCINvMNtCs8dnTdrJsiec_5alloc5sliceSBZ_11sort_by_keyyNCINvMs_B11_NtB11_5Lines5parseINtNtNtCsixjwb4TfRM4_5gimli4read12endian_slice11EndianSliceNtNtB3b_9endianity12LittleEndianEEs_0E0INtNtB1S_3vec3VecBZ_EECsaLOjE9VYtxK_3std, symObjAddr: 0xAF00, symBinAddr: 0x100106038, symSize: 0x128 }
  - { offset: 0x147472, size: 0x8, addend: 0x0, symName: __RINvNtNtNtCs6sq8b9ugfBC_4core5slice4sort6stable14driftsort_mainNtNtCs3S5NQbda6bJ_9addr2line4unit9UnitRangeNCINvMNtCs8dnTdrJsiec_5alloc5sliceSBZ_11sort_by_keyyNCNvMs_B11_INtB11_8ResUnitsINtNtNtCsixjwb4TfRM4_5gimli4read12endian_slice11EndianSliceNtNtB34_9endianity12LittleEndianEE5parses2_0E0INtNtB1O_3vec3VecBZ_EECsaLOjE9VYtxK_3std, symObjAddr: 0xB028, symBinAddr: 0x100106160, symSize: 0x124 }
  - { offset: 0x147800, size: 0x8, addend: 0x0, symName: __RINvNtNtNtCs6sq8b9ugfBC_4core5slice4sort6stable14driftsort_mainNtNtCs3S5NQbda6bJ_9addr2line8function15FunctionAddressNCINvMNtCs8dnTdrJsiec_5alloc5sliceSBZ_11sort_by_keyyNCNvMs0_B11_INtB11_9FunctionsINtNtNtCsixjwb4TfRM4_5gimli4read12endian_slice11EndianSliceNtNtB3h_9endianity12LittleEndianEE5parses_0E0INtNtB1Z_3vec3VecBZ_EECsaLOjE9VYtxK_3std, symObjAddr: 0xB14C, symBinAddr: 0x100106284, symSize: 0x148 }
  - { offset: 0x147B61, size: 0x8, addend: 0x0, symName: __RINvNtNtNtCs6sq8b9ugfBC_4core5slice4sort6stable14driftsort_mainNtNtCs3S5NQbda6bJ_9addr2line8function22InlinedFunctionAddressNCINvMNtCs8dnTdrJsiec_5alloc5sliceSBZ_7sort_byNCNvMs1_B11_INtB11_8FunctionINtNtNtCsixjwb4TfRM4_5gimli4read12endian_slice11EndianSliceNtNtB3h_9endianity12LittleEndianEE5parse0E0INtNtB26_3vec3VecBZ_EECsaLOjE9VYtxK_3std, symObjAddr: 0xB294, symBinAddr: 0x1001063CC, symSize: 0x124 }
  - { offset: 0x147EEF, size: 0x8, addend: 0x0, symName: __RINvNtNtNtCs6sq8b9ugfBC_4core5slice4sort6stable14driftsort_mainNtNtCsgmVNXhSCXCV_6object4read14ObjectMapEntryNCINvMNtCs8dnTdrJsiec_5alloc5sliceSBZ_11sort_by_keyyNCNvMs7_B11_INtB11_9SymbolMapBZ_E3new0E0INtNtB1R_3vec3VecBZ_EECsaLOjE9VYtxK_3std, symObjAddr: 0xB3B8, symBinAddr: 0x1001064F0, symSize: 0x148 }
  - { offset: 0x148250, size: 0x8, addend: 0x0, symName: __RINvNtNtNtCs6sq8b9ugfBC_4core5slice4sort6stable14driftsort_mainTNtNtCsixjwb4TfRM4_5gimli6common15DebugInfoOffsetNtB12_18DebugArangesOffsetENCINvMNtCs8dnTdrJsiec_5alloc5sliceSBZ_11sort_by_keyB10_NCNvMs_NtCs3S5NQbda6bJ_9addr2line4unitINtB3d_8ResUnitsINtNtNtB14_4read12endian_slice11EndianSliceNtNtB14_9endianity12LittleEndianEE5parse0E0INtNtB2l_3vec3VecBZ_EECsaLOjE9VYtxK_3std, symObjAddr: 0xB500, symBinAddr: 0x100106638, symSize: 0x124 }
  - { offset: 0x1487D1, size: 0x8, addend: 0x0, symName: __RINvNtNtNtNtCs6sq8b9ugfBC_4core5slice4sort6stable5drift4sortNtNtCs3S5NQbda6bJ_9addr2line4line12LineSequenceNCINvMNtCs8dnTdrJsiec_5alloc5sliceSBW_11sort_by_keyyNCINvMs_BY_NtBY_5Lines5parseINtNtNtCsixjwb4TfRM4_5gimli4read12endian_slice11EndianSliceNtNtB36_9endianity12LittleEndianEEs_0E0ECsaLOjE9VYtxK_3std, symObjAddr: 0xD6C8, symBinAddr: 0x100108224, symSize: 0x4EC }
  - { offset: 0x148E5D, size: 0x8, addend: 0x0, symName: __RINvNtNtNtNtCs6sq8b9ugfBC_4core5slice4sort6stable5drift4sortNtNtCs3S5NQbda6bJ_9addr2line4unit9UnitRangeNCINvMNtCs8dnTdrJsiec_5alloc5sliceSBW_11sort_by_keyyNCNvMs_BY_INtBY_8ResUnitsINtNtNtCsixjwb4TfRM4_5gimli4read12endian_slice11EndianSliceNtNtB2Z_9endianity12LittleEndianEE5parses2_0E0ECsaLOjE9VYtxK_3std, symObjAddr: 0xDBB4, symBinAddr: 0x100108710, symSize: 0x4EC }
  - { offset: 0x1494E9, size: 0x8, addend: 0x0, symName: __RINvNtNtNtNtCs6sq8b9ugfBC_4core5slice4sort6stable5drift4sortNtNtCs3S5NQbda6bJ_9addr2line8function15FunctionAddressNCINvMNtCs8dnTdrJsiec_5alloc5sliceSBW_11sort_by_keyyNCNvMs0_BY_INtBY_9FunctionsINtNtNtCsixjwb4TfRM4_5gimli4read12endian_slice11EndianSliceNtNtB3c_9endianity12LittleEndianEE5parses_0E0ECsaLOjE9VYtxK_3std, symObjAddr: 0xE0A0, symBinAddr: 0x100108BFC, symSize: 0x52C }
  - { offset: 0x149B60, size: 0x8, addend: 0x0, symName: __RINvNtNtNtNtCs6sq8b9ugfBC_4core5slice4sort6stable5drift4sortNtNtCs3S5NQbda6bJ_9addr2line8function22InlinedFunctionAddressNCINvMNtCs8dnTdrJsiec_5alloc5sliceSBW_7sort_byNCNvMs1_BY_INtBY_8FunctionINtNtNtCsixjwb4TfRM4_5gimli4read12endian_slice11EndianSliceNtNtB3c_9endianity12LittleEndianEE5parse0E0ECsaLOjE9VYtxK_3std, symObjAddr: 0xE5CC, symBinAddr: 0x100109128, symSize: 0x5E0 }
  - { offset: 0x14A231, size: 0x8, addend: 0x0, symName: __RINvNtNtNtNtCs6sq8b9ugfBC_4core5slice4sort6stable5drift4sortNtNtCsgmVNXhSCXCV_6object4read14ObjectMapEntryNCINvMNtCs8dnTdrJsiec_5alloc5sliceSBW_11sort_by_keyyNCNvMs7_BY_INtBY_9SymbolMapBW_E3new0E0ECsaLOjE9VYtxK_3std, symObjAddr: 0xEBAC, symBinAddr: 0x100109708, symSize: 0x534 }
  - { offset: 0x14A8D2, size: 0x8, addend: 0x0, symName: __RINvNtNtNtNtCs6sq8b9ugfBC_4core5slice4sort6stable5drift4sortTNtNtCsixjwb4TfRM4_5gimli6common15DebugInfoOffsetNtBZ_18DebugArangesOffsetENCINvMNtCs8dnTdrJsiec_5alloc5sliceSBW_11sort_by_keyBX_NCNvMs_NtCs3S5NQbda6bJ_9addr2line4unitINtB38_8ResUnitsINtNtNtB11_4read12endian_slice11EndianSliceNtNtB11_9endianity12LittleEndianEE5parse0E0ECsaLOjE9VYtxK_3std, symObjAddr: 0xF0E0, symBinAddr: 0x100109C3C, symSize: 0x574 }
  - { offset: 0x14B0CA, size: 0x8, addend: 0x0, symName: __RINvNtNtNtNtCs6sq8b9ugfBC_4core5slice4sort6stable9quicksort9quicksortNtNtCs3S5NQbda6bJ_9addr2line4line12LineSequenceNCINvMNtCs8dnTdrJsiec_5alloc5sliceSB15_11sort_by_keyyNCINvMs_B17_NtB17_5Lines5parseINtNtNtCsixjwb4TfRM4_5gimli4read12endian_slice11EndianSliceNtNtB3i_9endianity12LittleEndianEEs_0E0ECsaLOjE9VYtxK_3std, symObjAddr: 0xF654, symBinAddr: 0x10010A1B0, symSize: 0x6AC }
  - { offset: 0x14BBDE, size: 0x8, addend: 0x0, symName: __RINvNtNtNtNtCs6sq8b9ugfBC_4core5slice4sort6stable9quicksort9quicksortNtNtCs3S5NQbda6bJ_9addr2line4unit9UnitRangeNCINvMNtCs8dnTdrJsiec_5alloc5sliceSB15_11sort_by_keyyNCNvMs_B17_INtB17_8ResUnitsINtNtNtCsixjwb4TfRM4_5gimli4read12endian_slice11EndianSliceNtNtB3b_9endianity12LittleEndianEE5parses2_0E0ECsaLOjE9VYtxK_3std, symObjAddr: 0xFD00, symBinAddr: 0x10010A85C, symSize: 0x6B4 }
  - { offset: 0x14C6F2, size: 0x8, addend: 0x0, symName: __RINvNtNtNtNtCs6sq8b9ugfBC_4core5slice4sort6stable9quicksort9quicksortNtNtCs3S5NQbda6bJ_9addr2line8function15FunctionAddressNCINvMNtCs8dnTdrJsiec_5alloc5sliceSB15_11sort_by_keyyNCNvMs0_B17_INtB17_9FunctionsINtNtNtCsixjwb4TfRM4_5gimli4read12endian_slice11EndianSliceNtNtB3o_9endianity12LittleEndianEE5parses_0E0ECsaLOjE9VYtxK_3std, symObjAddr: 0x103B4, symBinAddr: 0x10010AF10, symSize: 0x7E4 }
  - { offset: 0x14D307, size: 0x8, addend: 0x0, symName: __RINvNtNtNtNtCs6sq8b9ugfBC_4core5slice4sort6stable9quicksort9quicksortNtNtCs3S5NQbda6bJ_9addr2line8function22InlinedFunctionAddressNCINvMNtCs8dnTdrJsiec_5alloc5sliceSB15_7sort_byNCNvMs1_B17_INtB17_8FunctionINtNtNtCsixjwb4TfRM4_5gimli4read12endian_slice11EndianSliceNtNtB3o_9endianity12LittleEndianEE5parse0E0ECsaLOjE9VYtxK_3std, symObjAddr: 0x10B98, symBinAddr: 0x10010B6F4, symSize: 0x718 }
  - { offset: 0x14DA73, size: 0x8, addend: 0x0, symName: __RINvNtNtNtNtCs6sq8b9ugfBC_4core5slice4sort6stable9quicksort9quicksortNtNtCsgmVNXhSCXCV_6object4read14ObjectMapEntryNCINvMNtCs8dnTdrJsiec_5alloc5sliceSB15_11sort_by_keyyNCNvMs7_B17_INtB17_9SymbolMapB15_E3new0E0ECsaLOjE9VYtxK_3std, symObjAddr: 0x112B0, symBinAddr: 0x10010BE0C, symSize: 0x800 }
  - { offset: 0x14E695, size: 0x8, addend: 0x0, symName: __RINvNtNtNtNtCs6sq8b9ugfBC_4core5slice4sort6stable9quicksort9quicksortTNtNtCsixjwb4TfRM4_5gimli6common15DebugInfoOffsetNtB18_18DebugArangesOffsetENCINvMNtCs8dnTdrJsiec_5alloc5sliceSB15_11sort_by_keyB16_NCNvMs_NtCs3S5NQbda6bJ_9addr2line4unitINtB3k_8ResUnitsINtNtNtB1a_4read12endian_slice11EndianSliceNtNtB1a_9endianity12LittleEndianEE5parse0E0ECsaLOjE9VYtxK_3std, symObjAddr: 0x11AB0, symBinAddr: 0x10010C60C, symSize: 0x7F4 }
  - { offset: 0x14F704, size: 0x8, addend: 0x0, symName: __RINvNtNtNtNtCs6sq8b9ugfBC_4core5slice4sort6shared9smallsort12sort4_stableNtNtCs3S5NQbda6bJ_9addr2line8function22InlinedFunctionAddressNCINvMNtCs8dnTdrJsiec_5alloc5sliceSB19_7sort_byNCNvMs1_B1b_INtB1b_8FunctionINtNtNtCsixjwb4TfRM4_5gimli4read12endian_slice11EndianSliceNtNtB3s_9endianity12LittleEndianEE5parse0E0ECsaLOjE9VYtxK_3std, symObjAddr: 0xC5B4, symBinAddr: 0x100107110, symSize: 0x17C }
  - { offset: 0x14F8C0, size: 0x8, addend: 0x0, symName: __RINvNtNtNtNtCs6sq8b9ugfBC_4core5slice4sort6shared9smallsort12sort4_stableTRShyENCINvMB8_SB19_20sort_unstable_by_keyB1a_NCNvMs_NtNtNtNtCsaLOjE9VYtxK_3std12backtrace_rs9symbolize5gimli5machoNtB20_6Object5parses_0E0EB28_, symObjAddr: 0xC730, symBinAddr: 0x10010728C, symSize: 0x180 }
  - { offset: 0x14FD0F, size: 0x8, addend: 0x0, symName: __RINvNtNtNtNtCs6sq8b9ugfBC_4core5slice4sort6shared9smallsort12sort8_stableTNtNtCsixjwb4TfRM4_5gimli6common15DebugInfoOffsetNtB1c_18DebugArangesOffsetENCINvMNtCs8dnTdrJsiec_5alloc5sliceSB19_11sort_by_keyB1a_NCNvMs_NtCs3S5NQbda6bJ_9addr2line4unitINtB3o_8ResUnitsINtNtNtB1e_4read12endian_slice11EndianSliceNtNtB1e_9endianity12LittleEndianEE5parse0E0ECsaLOjE9VYtxK_3std, symObjAddr: 0xC8B0, symBinAddr: 0x10010740C, symSize: 0x2B8 }
  - { offset: 0x15022C, size: 0x8, addend: 0x0, symName: __RINvNtNtNtNtCs6sq8b9ugfBC_4core5slice4sort6shared9smallsort18small_sort_generalTRShyENCINvMB8_SB1f_20sort_unstable_by_keyB1g_NCNvMs_NtNtNtNtCsaLOjE9VYtxK_3std12backtrace_rs9symbolize5gimli5machoNtB26_6Object5parses_0E0EB2e_, symObjAddr: 0xCB68, symBinAddr: 0x1001076C4, symSize: 0x3E8 }
  - { offset: 0x1507E3, size: 0x8, addend: 0x0, symName: __RINvNtNtNtNtCs6sq8b9ugfBC_4core5slice4sort6shared9smallsort18small_sort_generalTRShyENCINvMB8_SB1f_20sort_unstable_by_keyyNCNvMs_NtNtNtNtCsaLOjE9VYtxK_3std12backtrace_rs9symbolize5gimli5machoNtB23_6Object5parses0_0E0EB2b_, symObjAddr: 0xCF50, symBinAddr: 0x100107AAC, symSize: 0x490 }
  - { offset: 0x150F1C, size: 0x8, addend: 0x0, symName: __RINvNtNtNtNtCs6sq8b9ugfBC_4core5slice4sort6shared9smallsort25insertion_sort_shift_leftNtNtCs3S5NQbda6bJ_9addr2line4line12LineSequenceNCINvMNtCs8dnTdrJsiec_5alloc5sliceSB1m_11sort_by_keyyNCINvMs_B1o_NtB1o_5Lines5parseINtNtNtCsixjwb4TfRM4_5gimli4read12endian_slice11EndianSliceNtNtB3z_9endianity12LittleEndianEEs_0E0ECsaLOjE9VYtxK_3std, symObjAddr: 0xD3E0, symBinAddr: 0x100107F3C, symSize: 0x94 }
  - { offset: 0x150FFB, size: 0x8, addend: 0x0, symName: __RINvNtNtNtNtCs6sq8b9ugfBC_4core5slice4sort6shared9smallsort25insertion_sort_shift_leftNtNtCs3S5NQbda6bJ_9addr2line8function22InlinedFunctionAddressNCINvMNtCs8dnTdrJsiec_5alloc5sliceSB1m_7sort_byNCNvMs1_B1o_INtB1o_8FunctionINtNtNtCsixjwb4TfRM4_5gimli4read12endian_slice11EndianSliceNtNtB3F_9endianity12LittleEndianEE5parse0E0ECsaLOjE9VYtxK_3std, symObjAddr: 0xD474, symBinAddr: 0x100107FD0, symSize: 0xB8 }
  - { offset: 0x151134, size: 0x8, addend: 0x0, symName: __RINvNtNtNtNtCs6sq8b9ugfBC_4core5slice4sort6shared9smallsort25insertion_sort_shift_leftNtNtCsgmVNXhSCXCV_6object4read14ObjectMapEntryNCINvMNtCs8dnTdrJsiec_5alloc5sliceSB1m_11sort_by_keyyNCNvMs7_B1o_INtB1o_9SymbolMapB1m_E3new0E0ECsaLOjE9VYtxK_3std, symObjAddr: 0xD52C, symBinAddr: 0x100108088, symSize: 0xA8 }
  - { offset: 0x151205, size: 0x8, addend: 0x0, symName: __RINvNtNtNtNtCs6sq8b9ugfBC_4core5slice4sort6shared9smallsort25insertion_sort_shift_leftTRShyENCINvMB8_SB1m_20sort_unstable_by_keyB1n_NCNvMs_NtNtNtNtCsaLOjE9VYtxK_3std12backtrace_rs9symbolize5gimli5machoNtB2d_6Object5parses_0E0EB2l_, symObjAddr: 0xD5D4, symBinAddr: 0x100108130, symSize: 0xF4 }
  - { offset: 0x151633, size: 0x8, addend: 0x0, symName: __RINvNtNtNtNtCs6sq8b9ugfBC_4core5slice4sort6shared5pivot11median3_recNtNtCs3S5NQbda6bJ_9addr2line4line12LineSequenceNCINvMNtCs8dnTdrJsiec_5alloc5sliceSB14_11sort_by_keyyNCINvMs_B16_NtB16_5Lines5parseINtNtNtCsixjwb4TfRM4_5gimli4read12endian_slice11EndianSliceNtNtB3h_9endianity12LittleEndianEEs_0E0ECsaLOjE9VYtxK_3std, symObjAddr: 0xBE94, symBinAddr: 0x1001069F0, symSize: 0xCC }
  - { offset: 0x151735, size: 0x8, addend: 0x0, symName: __RINvNtNtNtNtCs6sq8b9ugfBC_4core5slice4sort6shared5pivot11median3_recNtNtCs3S5NQbda6bJ_9addr2line4unit9UnitRangeNCINvMNtCs8dnTdrJsiec_5alloc5sliceSB14_11sort_by_keyyNCNvMs_B16_INtB16_8ResUnitsINtNtNtCsixjwb4TfRM4_5gimli4read12endian_slice11EndianSliceNtNtB3a_9endianity12LittleEndianEE5parses2_0E0ECsaLOjE9VYtxK_3std, symObjAddr: 0xBF60, symBinAddr: 0x100106ABC, symSize: 0xCC }
  - { offset: 0x151837, size: 0x8, addend: 0x0, symName: __RINvNtNtNtNtCs6sq8b9ugfBC_4core5slice4sort6shared5pivot11median3_recNtNtCs3S5NQbda6bJ_9addr2line8function15FunctionAddressNCINvMNtCs8dnTdrJsiec_5alloc5sliceSB14_11sort_by_keyyNCNvMs0_B16_INtB16_9FunctionsINtNtNtCsixjwb4TfRM4_5gimli4read12endian_slice11EndianSliceNtNtB3n_9endianity12LittleEndianEE5parses_0E0ECsaLOjE9VYtxK_3std, symObjAddr: 0xC02C, symBinAddr: 0x100106B88, symSize: 0xD0 }
  - { offset: 0x151939, size: 0x8, addend: 0x0, symName: __RINvNtNtNtNtCs6sq8b9ugfBC_4core5slice4sort6shared5pivot11median3_recNtNtCs3S5NQbda6bJ_9addr2line8function22InlinedFunctionAddressNCINvMNtCs8dnTdrJsiec_5alloc5sliceSB14_7sort_byNCNvMs1_B16_INtB16_8FunctionINtNtNtCsixjwb4TfRM4_5gimli4read12endian_slice11EndianSliceNtNtB3n_9endianity12LittleEndianEE5parse0E0ECsaLOjE9VYtxK_3std, symObjAddr: 0xC0FC, symBinAddr: 0x100106C58, symSize: 0x118 }
  - { offset: 0x151A3E, size: 0x8, addend: 0x0, symName: __RINvNtNtNtNtCs6sq8b9ugfBC_4core5slice4sort6shared5pivot11median3_recNtNtCsgmVNXhSCXCV_6object4read14ObjectMapEntryNCINvMNtCs8dnTdrJsiec_5alloc5sliceSB14_11sort_by_keyyNCNvMs7_B16_INtB16_9SymbolMapB14_E3new0E0ECsaLOjE9VYtxK_3std, symObjAddr: 0xC214, symBinAddr: 0x100106D70, symSize: 0xD0 }
  - { offset: 0x151B40, size: 0x8, addend: 0x0, symName: __RINvNtNtNtNtCs6sq8b9ugfBC_4core5slice4sort6shared5pivot11median3_recTNtNtCsixjwb4TfRM4_5gimli6common15DebugInfoOffsetNtB17_18DebugArangesOffsetENCINvMNtCs8dnTdrJsiec_5alloc5sliceSB14_11sort_by_keyB15_NCNvMs_NtCs3S5NQbda6bJ_9addr2line4unitINtB3j_8ResUnitsINtNtNtB19_4read12endian_slice11EndianSliceNtNtB19_9endianity12LittleEndianEE5parse0E0ECsaLOjE9VYtxK_3std, symObjAddr: 0xC2E4, symBinAddr: 0x100106E40, symSize: 0xCC }
  - { offset: 0x151C70, size: 0x8, addend: 0x0, symName: __RINvNtNtNtNtCs6sq8b9ugfBC_4core5slice4sort6shared5pivot11median3_recTRShyENCINvMB8_SB14_20sort_unstable_by_keyB15_NCNvMs_NtNtNtNtCsaLOjE9VYtxK_3std12backtrace_rs9symbolize5gimli5machoNtB1V_6Object5parses_0E0EB23_, symObjAddr: 0xC3B0, symBinAddr: 0x100106F0C, symSize: 0x134 }
  - { offset: 0x151EAE, size: 0x8, addend: 0x0, symName: __RINvNtNtNtNtCs6sq8b9ugfBC_4core5slice4sort6shared5pivot11median3_recTRShyENCINvMB8_SB14_20sort_unstable_by_keyyNCNvMs_NtNtNtNtCsaLOjE9VYtxK_3std12backtrace_rs9symbolize5gimli5machoNtB1S_6Object5parses0_0E0EB20_, symObjAddr: 0xC4E4, symBinAddr: 0x100107040, symSize: 0xD0 }
  - { offset: 0x152063, size: 0x8, addend: 0x0, symName: __RINvNtNtNtCs6sq8b9ugfBC_4core5slice4sort8unstable7ipnsortTRShyENCINvMB6_SBT_20sort_unstable_by_keyBU_NCNvMs_NtNtNtNtCsaLOjE9VYtxK_3std12backtrace_rs9symbolize5gimli5machoNtB1I_6Object5parses_0E0EB1Q_, symObjAddr: 0xB624, symBinAddr: 0x10010675C, symSize: 0x1A8 }
  - { offset: 0x152345, size: 0x8, addend: 0x0, symName: __RINvNtNtNtCs6sq8b9ugfBC_4core5slice4sort8unstable7ipnsortTRShyENCINvMB6_SBT_20sort_unstable_by_keyyNCNvMs_NtNtNtNtCsaLOjE9VYtxK_3std12backtrace_rs9symbolize5gimli5machoNtB1G_6Object5parses0_0E0EB1O_, symObjAddr: 0xB7CC, symBinAddr: 0x100106904, symSize: 0xEC }
  - { offset: 0x1524A7, size: 0x8, addend: 0x0, symName: __RINvNtNtNtNtCs6sq8b9ugfBC_4core5slice4sort8unstable8heapsort8heapsortTRShyENCINvMB8_SB15_20sort_unstable_by_keyB16_NCNvMs_NtNtNtNtCsaLOjE9VYtxK_3std12backtrace_rs9symbolize5gimli5machoNtB1W_6Object5parses_0E0EB24_, symObjAddr: 0x122A4, symBinAddr: 0x10010CE00, symSize: 0x160 }
  - { offset: 0x1527C1, size: 0x8, addend: 0x0, symName: __RINvNtNtNtNtCs6sq8b9ugfBC_4core5slice4sort8unstable8heapsort8heapsortTRShyENCINvMB8_SB15_20sort_unstable_by_keyyNCNvMs_NtNtNtNtCsaLOjE9VYtxK_3std12backtrace_rs9symbolize5gimli5machoNtB1T_6Object5parses0_0E0EB21_, symObjAddr: 0x12404, symBinAddr: 0x10010CF60, symSize: 0x100 }
  - { offset: 0x152A79, size: 0x8, addend: 0x0, symName: __RINvNtNtNtNtCs6sq8b9ugfBC_4core5slice4sort8unstable9quicksort9quicksortTRShyENCINvMB8_SB17_20sort_unstable_by_keyB18_NCNvMs_NtNtNtNtCsaLOjE9VYtxK_3std12backtrace_rs9symbolize5gimli5machoNtB1Y_6Object5parses_0E0EB26_, symObjAddr: 0x12504, symBinAddr: 0x10010D060, symSize: 0x510 }
  - { offset: 0x153533, size: 0x8, addend: 0x0, symName: __RINvNtNtNtNtCs6sq8b9ugfBC_4core5slice4sort8unstable9quicksort9quicksortTRShyENCINvMB8_SB17_20sort_unstable_by_keyyNCNvMs_NtNtNtNtCsaLOjE9VYtxK_3std12backtrace_rs9symbolize5gimli5machoNtB1V_6Object5parses0_0E0EB23_, symObjAddr: 0x12A14, symBinAddr: 0x10010D570, symSize: 0x3D8 }
  - { offset: 0x155451, size: 0x8, addend: 0x0, symName: __RINvNtCs6sq8b9ugfBC_4core3ptr13drop_in_placeINtCs3S5NQbda6bJ_9addr2line7ContextINtNtNtCsixjwb4TfRM4_5gimli4read12endian_slice11EndianSliceNtNtB1m_9endianity12LittleEndianEEECsaLOjE9VYtxK_3std, symObjAddr: 0x58DC, symBinAddr: 0x1001024E0, symSize: 0x70 }
  - { offset: 0x155503, size: 0x8, addend: 0x0, symName: __RINvNtCs6sq8b9ugfBC_4core3ptr13drop_in_placeINtNtB4_3pin3PinINtNtCs8dnTdrJsiec_5alloc5boxed3BoxNtNtNtNtNtNtCsaLOjE9VYtxK_3std3sys3pal4unix4sync5mutex5MutexEEEB1H_, symObjAddr: 0x594C, symBinAddr: 0x100102550, symSize: 0x2C }
  - { offset: 0x1555CD, size: 0x8, addend: 0x0, symName: __RINvNtCs6sq8b9ugfBC_4core3ptr13drop_in_placeINtNtB4_6option6OptionINtNtNtCsixjwb4TfRM4_5gimli4read4line21IncompleteLineProgramINtNtB17_12endian_slice11EndianSliceNtNtB19_9endianity12LittleEndianEjEEECsaLOjE9VYtxK_3std, symObjAddr: 0x599C, symBinAddr: 0x10010257C, symSize: 0x98 }
  - { offset: 0x15596C, size: 0x8, addend: 0x0, symName: __RINvNtCs6sq8b9ugfBC_4core3ptr13drop_in_placeINtNtB4_6option6OptionNtNtCsgmVNXhSCXCV_6object4read9ObjectMapEECsaLOjE9VYtxK_3std, symObjAddr: 0x5A48, symBinAddr: 0x100102614, symSize: 0x64 }
  - { offset: 0x155B55, size: 0x8, addend: 0x0, symName: __RINvNtCs6sq8b9ugfBC_4core3ptr13drop_in_placeINtNtB4_6option6OptionNtNtNtNtCsaLOjE9VYtxK_3std12backtrace_rs9symbolize5gimli7MappingEEB1a_, symObjAddr: 0x5AD0, symBinAddr: 0x100102678, symSize: 0x6C }
  - { offset: 0x155C21, size: 0x8, addend: 0x0, symName: __RINvNtCs6sq8b9ugfBC_4core3ptr13drop_in_placeINtNtB4_6result6ResultINtNtB4_6option6OptionINtNtCs8dnTdrJsiec_5alloc5boxed3BoxINtNtCs3S5NQbda6bJ_9addr2line4unit7DwoUnitINtNtNtCsixjwb4TfRM4_5gimli4read12endian_slice11EndianSliceNtNtB2K_9endianity12LittleEndianEEEENtB2I_5ErrorEECsaLOjE9VYtxK_3std, symObjAddr: 0x5B54, symBinAddr: 0x1001026E4, symSize: 0xD4 }
  - { offset: 0x155EBF, size: 0x8, addend: 0x0, symName: __RINvNtCs6sq8b9ugfBC_4core3ptr13drop_in_placeINtNtB4_6result6ResultINtNtCs3S5NQbda6bJ_9addr2line5frame9FrameIterINtNtNtCsixjwb4TfRM4_5gimli4read12endian_slice11EndianSliceNtNtB1S_9endianity12LittleEndianEENtB1Q_5ErrorEECsaLOjE9VYtxK_3std, symObjAddr: 0x5C28, symBinAddr: 0x1001027B8, symSize: 0x2C }
  - { offset: 0x156037, size: 0x8, addend: 0x0, symName: __RINvNtCs6sq8b9ugfBC_4core3ptr13drop_in_placeINtNtB4_6result6ResultINtNtCs3S5NQbda6bJ_9addr2line8function9FunctionsINtNtNtCsixjwb4TfRM4_5gimli4read12endian_slice11EndianSliceNtNtB1V_9endianity12LittleEndianEENtB1T_5ErrorEECsaLOjE9VYtxK_3std, symObjAddr: 0x5C54, symBinAddr: 0x1001027E4, symSize: 0xD8 }
  - { offset: 0x1563C5, size: 0x8, addend: 0x0, symName: __RINvNtCs6sq8b9ugfBC_4core3ptr13drop_in_placeINtNtB4_6result6ResultNtNtCs3S5NQbda6bJ_9addr2line4line5LinesNtNtCsixjwb4TfRM4_5gimli4read5ErrorEECsaLOjE9VYtxK_3std, symObjAddr: 0x5D78, symBinAddr: 0x1001028BC, symSize: 0xE4 }
  - { offset: 0x156714, size: 0x8, addend: 0x0, symName: __RINvNtCs6sq8b9ugfBC_4core3ptr13drop_in_placeINtNtB4_6result6ResultRIBH_INtNtB4_6option6OptionINtNtCs8dnTdrJsiec_5alloc5boxed3BoxINtNtCs3S5NQbda6bJ_9addr2line4unit7DwoUnitINtNtNtCsixjwb4TfRM4_5gimli4read12endian_slice11EndianSliceNtNtB2P_9endianity12LittleEndianEEEENtB2N_5ErrorETB12_B13_EEECsaLOjE9VYtxK_3std, symObjAddr: 0x5E88, symBinAddr: 0x1001029A0, symSize: 0x14 }
  - { offset: 0x156754, size: 0x8, addend: 0x0, symName: __RINvNtCs6sq8b9ugfBC_4core3ptr13drop_in_placeINtNtB4_6result6ResultRIBH_INtNtCs3S5NQbda6bJ_9addr2line8function8FunctionINtNtNtCsixjwb4TfRM4_5gimli4read12endian_slice11EndianSliceNtNtB1Z_9endianity12LittleEndianEENtB1X_5ErrorETB12_B13_EEECsaLOjE9VYtxK_3std, symObjAddr: 0x5E9C, symBinAddr: 0x1001029B4, symSize: 0x64 }
  - { offset: 0x15691B, size: 0x8, addend: 0x0, symName: __RINvNtCs6sq8b9ugfBC_4core3ptr13drop_in_placeINtNtB4_6result6ResultRIBH_INtNtCs3S5NQbda6bJ_9addr2line8function9FunctionsINtNtNtCsixjwb4TfRM4_5gimli4read12endian_slice11EndianSliceNtNtB20_9endianity12LittleEndianEENtB1Y_5ErrorETB12_B13_EEECsaLOjE9VYtxK_3std, symObjAddr: 0x5F00, symBinAddr: 0x100102A18, symSize: 0x10 }
  - { offset: 0x15695B, size: 0x8, addend: 0x0, symName: __RINvNtCs6sq8b9ugfBC_4core3ptr13drop_in_placeINtNtB4_6result6ResultRIBH_NtNtCs3S5NQbda6bJ_9addr2line4line5LinesNtNtCsixjwb4TfRM4_5gimli4read5ErrorETB12_B13_EEECsaLOjE9VYtxK_3std, symObjAddr: 0x5F10, symBinAddr: 0x100102A28, symSize: 0x10 }
  - { offset: 0x1569C5, size: 0x8, addend: 0x0, symName: __RINvNtCs6sq8b9ugfBC_4core3ptr13drop_in_placeINtNtB4_6result6ResultRNtNtNtCsaLOjE9VYtxK_3std6thread6thread6ThreadTB12_B13_EEEB19_, symObjAddr: 0x5F20, symBinAddr: 0x100102A38, symSize: 0x28 }
  - { offset: 0x156AC3, size: 0x8, addend: 0x0, symName: __RINvNtCs6sq8b9ugfBC_4core3ptr13drop_in_placeINtNtB4_6result6ResultuNtNtNtCsaLOjE9VYtxK_3std2io5error5ErrorEEB19_, symObjAddr: 0x5F58, symBinAddr: 0x100102A60, symSize: 0x10 }
  - { offset: 0x156B71, size: 0x8, addend: 0x0, symName: __RINvNtCs6sq8b9ugfBC_4core3ptr13drop_in_placeINtNtCs3S5NQbda6bJ_9addr2line4unit7ResUnitINtNtNtCsixjwb4TfRM4_5gimli4read12endian_slice11EndianSliceNtNtB1t_9endianity12LittleEndianEEECsaLOjE9VYtxK_3std, symObjAddr: 0x5F68, symBinAddr: 0x100102A70, symSize: 0xE4 }
  - { offset: 0x156DAD, size: 0x8, addend: 0x0, symName: __RINvNtCs6sq8b9ugfBC_4core3ptr13drop_in_placeINtNtCs3S5NQbda6bJ_9addr2line4unit7SupUnitINtNtNtCsixjwb4TfRM4_5gimli4read12endian_slice11EndianSliceNtNtB1t_9endianity12LittleEndianEEECsaLOjE9VYtxK_3std, symObjAddr: 0x604C, symBinAddr: 0x100102B54, symSize: 0x54 }
  - { offset: 0x156E90, size: 0x8, addend: 0x0, symName: __RINvNtCs6sq8b9ugfBC_4core3ptr13drop_in_placeINtNtCs3S5NQbda6bJ_9addr2line4unit8ResUnitsINtNtNtCsixjwb4TfRM4_5gimli4read12endian_slice11EndianSliceNtNtB1u_9endianity12LittleEndianEEECsaLOjE9VYtxK_3std, symObjAddr: 0x60A0, symBinAddr: 0x100102BA8, symSize: 0xD0 }
  - { offset: 0x1570D1, size: 0x8, addend: 0x0, symName: __RINvNtCs6sq8b9ugfBC_4core3ptr13drop_in_placeINtNtCs3S5NQbda6bJ_9addr2line4unit8SupUnitsINtNtNtCsixjwb4TfRM4_5gimli4read12endian_slice11EndianSliceNtNtB1u_9endianity12LittleEndianEEECsaLOjE9VYtxK_3std, symObjAddr: 0x6170, symBinAddr: 0x100102C78, symSize: 0xE4 }
  - { offset: 0x1572FE, size: 0x8, addend: 0x0, symName: __RINvNtCs6sq8b9ugfBC_4core3ptr13drop_in_placeINtNtCs8dnTdrJsiec_5alloc3vec3VecINtNtB4_6option6OptionIB1e_NtNtNtNtCsaLOjE9VYtxK_3std12backtrace_rs9symbolize5gimli7MappingEEEEB1M_, symObjAddr: 0x62B8, symBinAddr: 0x100102D5C, symSize: 0x78 }
  - { offset: 0x1574CF, size: 0x8, addend: 0x0, symName: __RINvNtCs6sq8b9ugfBC_4core3ptr13drop_in_placeINtNtCs8dnTdrJsiec_5alloc3vec3VecINtNtCs3S5NQbda6bJ_9addr2line4unit7ResUnitINtNtNtCsixjwb4TfRM4_5gimli4read12endian_slice11EndianSliceNtNtB20_9endianity12LittleEndianEEEECsaLOjE9VYtxK_3std, symObjAddr: 0x63A0, symBinAddr: 0x100102DD4, symSize: 0xC4 }
  - { offset: 0x1576A7, size: 0x8, addend: 0x0, symName: __RINvNtCs6sq8b9ugfBC_4core3ptr13drop_in_placeINtNtCs8dnTdrJsiec_5alloc3vec3VecINtNtCs3S5NQbda6bJ_9addr2line4unit7SupUnitINtNtNtCsixjwb4TfRM4_5gimli4read12endian_slice11EndianSliceNtNtB20_9endianity12LittleEndianEEEECsaLOjE9VYtxK_3std, symObjAddr: 0x6464, symBinAddr: 0x100102E98, symSize: 0xF4 }
  - { offset: 0x157924, size: 0x8, addend: 0x0, symName: __RINvNtCs6sq8b9ugfBC_4core3ptr13drop_in_placeINtNtCs8dnTdrJsiec_5alloc3vec3VecINtNtCs3S5NQbda6bJ_9addr2line8function12LazyFunctionINtNtNtCsixjwb4TfRM4_5gimli4read12endian_slice11EndianSliceNtNtB2a_9endianity12LittleEndianEEEECsaLOjE9VYtxK_3std, symObjAddr: 0x6558, symBinAddr: 0x100102F8C, symSize: 0xAC }
  - { offset: 0x157BF5, size: 0x8, addend: 0x0, symName: __RINvNtCs6sq8b9ugfBC_4core3ptr13drop_in_placeINtNtCs8dnTdrJsiec_5alloc3vec3VecNtNtBL_6string6StringEECsaLOjE9VYtxK_3std, symObjAddr: 0x6604, symBinAddr: 0x100103038, symSize: 0x80 }
  - { offset: 0x157DB7, size: 0x8, addend: 0x0, symName: __RINvNtCs6sq8b9ugfBC_4core3ptr13drop_in_placeINtNtCs8dnTdrJsiec_5alloc3vec3VecNtNtCs3S5NQbda6bJ_9addr2line4line12LineSequenceEECsaLOjE9VYtxK_3std, symObjAddr: 0x6684, symBinAddr: 0x1001030B8, symSize: 0x84 }
  - { offset: 0x157F79, size: 0x8, addend: 0x0, symName: __RINvNtCs6sq8b9ugfBC_4core3ptr13drop_in_placeINtNtCs8dnTdrJsiec_5alloc3vec3VechEECsaLOjE9VYtxK_3std, symObjAddr: 0x681C, symBinAddr: 0x10010313C, symSize: 0x18 }
  - { offset: 0x15802B, size: 0x8, addend: 0x0, symName: __RINvNtCs6sq8b9ugfBC_4core3ptr13drop_in_placeINtNtCs8dnTdrJsiec_5alloc4sync3ArcINtNtNtNtCsaLOjE9VYtxK_3std4sync6poison5mutex5MutexINtNtBL_3vec3VechEEEEB1n_, symObjAddr: 0x6834, symBinAddr: 0x100103154, symSize: 0x20 }
  - { offset: 0x158043, size: 0x8, addend: 0x0, symName: __RINvNtCs6sq8b9ugfBC_4core3ptr13drop_in_placeINtNtCs8dnTdrJsiec_5alloc4sync3ArcINtNtNtNtCsaLOjE9VYtxK_3std4sync6poison5mutex5MutexINtNtBL_3vec3VechEEEEB1n_, symObjAddr: 0x6834, symBinAddr: 0x100103154, symSize: 0x20 }
  - { offset: 0x158059, size: 0x8, addend: 0x0, symName: __RINvNtCs6sq8b9ugfBC_4core3ptr13drop_in_placeINtNtCs8dnTdrJsiec_5alloc4sync3ArcINtNtNtNtCsaLOjE9VYtxK_3std4sync6poison5mutex5MutexINtNtBL_3vec3VechEEEEB1n_, symObjAddr: 0x6834, symBinAddr: 0x100103154, symSize: 0x20 }
  - { offset: 0x15806F, size: 0x8, addend: 0x0, symName: __RINvNtCs6sq8b9ugfBC_4core3ptr13drop_in_placeINtNtCs8dnTdrJsiec_5alloc4sync3ArcINtNtNtNtCsaLOjE9VYtxK_3std4sync6poison5mutex5MutexINtNtBL_3vec3VechEEEEB1n_, symObjAddr: 0x6834, symBinAddr: 0x100103154, symSize: 0x20 }
  - { offset: 0x1580E2, size: 0x8, addend: 0x0, symName: __RINvNtCs6sq8b9ugfBC_4core3ptr13drop_in_placeINtNtCs8dnTdrJsiec_5alloc4sync8ArcInnerINtNtNtCsixjwb4TfRM4_5gimli4read5dwarf5DwarfINtNtB1o_12endian_slice11EndianSliceNtNtB1q_9endianity12LittleEndianEEEECsaLOjE9VYtxK_3std, symObjAddr: 0x6874, symBinAddr: 0x100103174, symSize: 0x5C }
  - { offset: 0x1581A0, size: 0x8, addend: 0x0, symName: __RINvNtCs6sq8b9ugfBC_4core3ptr13drop_in_placeINtNtCs8dnTdrJsiec_5alloc4sync8ArcInnerNtNtNtNtCsaLOjE9VYtxK_3std3sys2fs4unix12InnerReadDirEEB1r_, symObjAddr: 0x68D0, symBinAddr: 0x1001031D0, symSize: 0x60 }
  - { offset: 0x1583B3, size: 0x8, addend: 0x0, symName: __RINvNtCs6sq8b9ugfBC_4core3ptr13drop_in_placeINtNtCs8dnTdrJsiec_5alloc5boxed3BoxDG0_INtNtNtB4_3ops8function2FnTRL1_INtNtCsaLOjE9VYtxK_3std5panic13PanicHookInfoL0_EEEp6OutputuNtNtB4_6marker4SyncNtB2N_4SendEL_EEB1T_, symObjAddr: 0x6930, symBinAddr: 0x100103230, symSize: 0x78 }
  - { offset: 0x158564, size: 0x8, addend: 0x0, symName: __RINvNtCs6sq8b9ugfBC_4core3ptr13drop_in_placeINtNtCs8dnTdrJsiec_5alloc5boxed3BoxSINtNtB4_6option6OptionIB1h_NtNtNtNtCsaLOjE9VYtxK_3std12backtrace_rs9symbolize5gimli7MappingEEEEB1P_, symObjAddr: 0x6A54, symBinAddr: 0x1001032A8, symSize: 0xF8 }
  - { offset: 0x1586E6, size: 0x8, addend: 0x0, symName: __RINvNtCs6sq8b9ugfBC_4core3ptr13drop_in_placeINtNtCs8dnTdrJsiec_5alloc5boxed3BoxSINtNtCs3S5NQbda6bJ_9addr2line8function12LazyFunctionINtNtNtCsixjwb4TfRM4_5gimli4read12endian_slice11EndianSliceNtNtB2d_9endianity12LittleEndianEEEECsaLOjE9VYtxK_3std, symObjAddr: 0x6B4C, symBinAddr: 0x1001033A0, symSize: 0x9C }
  - { offset: 0x1586FE, size: 0x8, addend: 0x0, symName: __RINvNtCs6sq8b9ugfBC_4core3ptr13drop_in_placeINtNtCs8dnTdrJsiec_5alloc5boxed3BoxSINtNtCs3S5NQbda6bJ_9addr2line8function12LazyFunctionINtNtNtCsixjwb4TfRM4_5gimli4read12endian_slice11EndianSliceNtNtB2d_9endianity12LittleEndianEEEECsaLOjE9VYtxK_3std, symObjAddr: 0x6B4C, symBinAddr: 0x1001033A0, symSize: 0x9C }
  - { offset: 0x158971, size: 0x8, addend: 0x0, symName: __RINvNtCs6sq8b9ugfBC_4core3ptr13drop_in_placeINtNtCs8dnTdrJsiec_5alloc5boxed3BoxSNtNtBL_6string6StringEECsaLOjE9VYtxK_3std, symObjAddr: 0x6BE8, symBinAddr: 0x10010343C, symSize: 0x70 }
  - { offset: 0x158989, size: 0x8, addend: 0x0, symName: __RINvNtCs6sq8b9ugfBC_4core3ptr13drop_in_placeINtNtCs8dnTdrJsiec_5alloc5boxed3BoxSNtNtBL_6string6StringEECsaLOjE9VYtxK_3std, symObjAddr: 0x6BE8, symBinAddr: 0x10010343C, symSize: 0x70 }
  - { offset: 0x158AED, size: 0x8, addend: 0x0, symName: __RINvNtCs6sq8b9ugfBC_4core3ptr13drop_in_placeINtNtNtCsixjwb4TfRM4_5gimli4read4line8LineRowsINtNtBL_12endian_slice11EndianSliceNtNtBN_9endianity12LittleEndianEINtBJ_21IncompleteLineProgramB1q_jEjEECsaLOjE9VYtxK_3std, symObjAddr: 0x6D10, symBinAddr: 0x1001034AC, symSize: 0x8C }
  - { offset: 0x158E1C, size: 0x8, addend: 0x0, symName: __RINvNtCs6sq8b9ugfBC_4core3ptr13drop_in_placeINtNtNtCsixjwb4TfRM4_5gimli4read5dwarf4UnitINtNtBL_12endian_slice11EndianSliceNtNtBN_9endianity12LittleEndianEjEECsaLOjE9VYtxK_3std, symObjAddr: 0x6D9C, symBinAddr: 0x100103538, symSize: 0x54 }
  - { offset: 0x158EBE, size: 0x8, addend: 0x0, symName: __RINvNtCs6sq8b9ugfBC_4core3ptr13drop_in_placeINtNtNtCsixjwb4TfRM4_5gimli4read5dwarf5DwarfINtNtBL_12endian_slice11EndianSliceNtNtBN_9endianity12LittleEndianEEECsaLOjE9VYtxK_3std, symObjAddr: 0x6DF0, symBinAddr: 0x10010358C, symSize: 0x58 }
  - { offset: 0x158F68, size: 0x8, addend: 0x0, symName: __RINvNtCs6sq8b9ugfBC_4core3ptr13drop_in_placeINtNtNtNtCsaLOjE9VYtxK_3std3sys16platform_version6darwin8DeferredNCNvBJ_18string_version_key0EEBP_, symObjAddr: 0x70D0, symBinAddr: 0x1001035E4, symSize: 0x7C }
  - { offset: 0x159034, size: 0x8, addend: 0x0, symName: __RINvNtCs6sq8b9ugfBC_4core3ptr13drop_in_placeINtNtNtNtCsaLOjE9VYtxK_3std4sync6poison5mutex10MutexGuardINtNtCs8dnTdrJsiec_5alloc3vec3VechEEEBP_, symObjAddr: 0x714C, symBinAddr: 0x100103660, symSize: 0x54 }
  - { offset: 0x15904C, size: 0x8, addend: 0x0, symName: __RINvNtCs6sq8b9ugfBC_4core3ptr13drop_in_placeINtNtNtNtCsaLOjE9VYtxK_3std4sync6poison5mutex10MutexGuardINtNtCs8dnTdrJsiec_5alloc3vec3VechEEEBP_, symObjAddr: 0x714C, symBinAddr: 0x100103660, symSize: 0x54 }
  - { offset: 0x159139, size: 0x8, addend: 0x0, symName: __RINvNtCs6sq8b9ugfBC_4core3ptr13drop_in_placeINtNtNtNtCsaLOjE9VYtxK_3std4sync6poison6rwlock15RwLockReadGuarduEEBP_, symObjAddr: 0x71A0, symBinAddr: 0x1001036B4, symSize: 0x58 }
  - { offset: 0x1591DB, size: 0x8, addend: 0x0, symName: __RINvNtCs6sq8b9ugfBC_4core3ptr13drop_in_placeINtNvNtCsaLOjE9VYtxK_3std2io17default_write_fmt7AdapterINtNtBL_6cursor6CursorQShEEEBN_, symObjAddr: 0x71F8, symBinAddr: 0x10010370C, symSize: 0x10 }
  - { offset: 0x1591F3, size: 0x8, addend: 0x0, symName: __RINvNtCs6sq8b9ugfBC_4core3ptr13drop_in_placeINtNvNtCsaLOjE9VYtxK_3std2io17default_write_fmt7AdapterINtNtBL_6cursor6CursorQShEEEBN_, symObjAddr: 0x71F8, symBinAddr: 0x10010370C, symSize: 0x10 }
  - { offset: 0x159222, size: 0x8, addend: 0x0, symName: __RINvNtCs6sq8b9ugfBC_4core3ptr13drop_in_placeINtNvXsy_NtNtNtCs8dnTdrJsiec_5alloc11collections5btree3mapINtBP_8IntoIterpppENtNtNtB4_3ops4drop4Drop4drop9DropGuardyINtNtB4_6result6ResultINtNtBV_4sync3ArcNtNtNtCsixjwb4TfRM4_5gimli4read6abbrev13AbbreviationsENtB3f_5ErrorENtNtBV_5alloc6GlobalEECsaLOjE9VYtxK_3std, symObjAddr: 0x7208, symBinAddr: 0x10010371C, symSize: 0x84 }
  - { offset: 0x1593A1, size: 0x8, addend: 0x0, symName: __RINvNtCs6sq8b9ugfBC_4core3ptr13drop_in_placeNCNvNtNtCsaLOjE9VYtxK_3std3sys9backtrace10__print_fmt0EBO_, symObjAddr: 0x728C, symBinAddr: 0x1001037A0, symSize: 0x1C }
  - { offset: 0x1594CE, size: 0x8, addend: 0x0, symName: __RINvNtCs6sq8b9ugfBC_4core3ptr13drop_in_placeNtNtCs8dnTdrJsiec_5alloc6string6StringECsaLOjE9VYtxK_3std, symObjAddr: 0x72D4, symBinAddr: 0x1001037BC, symSize: 0x18 }
  - { offset: 0x1594E6, size: 0x8, addend: 0x0, symName: __RINvNtCs6sq8b9ugfBC_4core3ptr13drop_in_placeNtNtCs8dnTdrJsiec_5alloc6string6StringECsaLOjE9VYtxK_3std, symObjAddr: 0x72D4, symBinAddr: 0x1001037BC, symSize: 0x18 }
  - { offset: 0x1595A5, size: 0x8, addend: 0x0, symName: __RINvNtCs6sq8b9ugfBC_4core3ptr13drop_in_placeNtNtCsgmVNXhSCXCV_6object4read9ObjectMapECsaLOjE9VYtxK_3std, symObjAddr: 0x7678, symBinAddr: 0x1001037D4, symSize: 0x58 }
  - { offset: 0x15973F, size: 0x8, addend: 0x0, symName: __RINvNtCs6sq8b9ugfBC_4core3ptr13drop_in_placeNtNtNtCs8dnTdrJsiec_5alloc3ffi5c_str8NulErrorECsaLOjE9VYtxK_3std, symObjAddr: 0x76F0, symBinAddr: 0x10010382C, symSize: 0x18 }
  - { offset: 0x159757, size: 0x8, addend: 0x0, symName: __RINvNtCs6sq8b9ugfBC_4core3ptr13drop_in_placeNtNtNtCs8dnTdrJsiec_5alloc3ffi5c_str8NulErrorECsaLOjE9VYtxK_3std, symObjAddr: 0x76F0, symBinAddr: 0x10010382C, symSize: 0x18 }
  - { offset: 0x15984E, size: 0x8, addend: 0x0, symName: __RINvNtCs6sq8b9ugfBC_4core3ptr13drop_in_placeNtNtNtCsaLOjE9VYtxK_3std2io5error5ErrorEBM_, symObjAddr: 0x7708, symBinAddr: 0x100103844, symSize: 0xB4 }
  - { offset: 0x159BE4, size: 0x8, addend: 0x0, symName: __RINvNtCs6sq8b9ugfBC_4core3ptr13drop_in_placeNtNtNtCsixjwb4TfRM4_5gimli4read6abbrev13AbbreviationsECsaLOjE9VYtxK_3std, symObjAddr: 0x7928, symBinAddr: 0x1001038F8, symSize: 0x118 }
  - { offset: 0x15A013, size: 0x8, addend: 0x0, symName: __RINvNtCs6sq8b9ugfBC_4core3ptr13drop_in_placeNtNtNtCsixjwb4TfRM4_5gimli4read6abbrev18AbbreviationsCacheECsaLOjE9VYtxK_3std, symObjAddr: 0x7A40, symBinAddr: 0x100103A10, symSize: 0xCC }
  - { offset: 0x15A1D1, size: 0x8, addend: 0x0, symName: __RINvNtCs6sq8b9ugfBC_4core3ptr13drop_in_placeNtNtNtNtCsaLOjE9VYtxK_3std12backtrace_rs9backtrace9libunwind4BombEBO_, symObjAddr: 0x7B0C, symBinAddr: 0x100103ADC, symSize: 0x28 }
  - { offset: 0x15A241, size: 0x8, addend: 0x0, symName: __RINvNtCs6sq8b9ugfBC_4core3ptr13drop_in_placeNtNtNtNtCsaLOjE9VYtxK_3std12backtrace_rs9symbolize5gimli7ContextEBO_, symObjAddr: 0x7B34, symBinAddr: 0x100103B04, symSize: 0xE8 }
  - { offset: 0x15A58C, size: 0x8, addend: 0x0, symName: __RINvNtCs6sq8b9ugfBC_4core3ptr13drop_in_placeNtNtNtNtNtCsaLOjE9VYtxK_3std12backtrace_rs9symbolize5gimli5macho6ObjectEBQ_, symObjAddr: 0x7E24, symBinAddr: 0x100103BEC, symSize: 0xD8 }
  - { offset: 0x15A9C8, size: 0x8, addend: 0x0, symName: __RINvNtCs6sq8b9ugfBC_4core3ptr13drop_in_placeNtNtNtNtNtCsaLOjE9VYtxK_3std12backtrace_rs9symbolize5gimli5stash5StashEBQ_, symObjAddr: 0x7EFC, symBinAddr: 0x100103CC4, symSize: 0xB8 }
  - { offset: 0x15AD05, size: 0x8, addend: 0x0, symName: __RINvNtCs6sq8b9ugfBC_4core3ptr13drop_in_placeNtNtNtNtNtNtCsaLOjE9VYtxK_3std3sys3pal4unix4sync5mutex9AttrGuardEBS_, symObjAddr: 0x8104, symBinAddr: 0x100103D7C, symSize: 0x44 }
  - { offset: 0x15AD28, size: 0x8, addend: 0x0, symName: __RINvNtCs6sq8b9ugfBC_4core3ptr13drop_in_placeNtNvXsf_NtNtCs8dnTdrJsiec_5alloc5boxed7convertINtBQ_3BoxDNtNtB4_5error5ErrorNtNtB4_6marker4SyncNtB1W_4SendEL_EINtNtB4_7convert4FromNtNtBS_6string6StringE4from11StringErrorECsaLOjE9VYtxK_3std, symObjAddr: 0x82F4, symBinAddr: 0x100103DC0, symSize: 0x18 }
  - { offset: 0x15AD40, size: 0x8, addend: 0x0, symName: __RINvNtCs6sq8b9ugfBC_4core3ptr13drop_in_placeNtNvXsf_NtNtCs8dnTdrJsiec_5alloc5boxed7convertINtBQ_3BoxDNtNtB4_5error5ErrorNtNtB4_6marker4SyncNtB1W_4SendEL_EINtNtB4_7convert4FromNtNtBS_6string6StringE4from11StringErrorECsaLOjE9VYtxK_3std, symObjAddr: 0x82F4, symBinAddr: 0x100103DC0, symSize: 0x18 }
  - { offset: 0x15AD56, size: 0x8, addend: 0x0, symName: __RINvNtCs6sq8b9ugfBC_4core3ptr13drop_in_placeNtNvXsf_NtNtCs8dnTdrJsiec_5alloc5boxed7convertINtBQ_3BoxDNtNtB4_5error5ErrorNtNtB4_6marker4SyncNtB1W_4SendEL_EINtNtB4_7convert4FromNtNtBS_6string6StringE4from11StringErrorECsaLOjE9VYtxK_3std, symObjAddr: 0x82F4, symBinAddr: 0x100103DC0, symSize: 0x18 }
  - { offset: 0x15AE16, size: 0x8, addend: 0x0, symName: __RINvNtCs6sq8b9ugfBC_4core3ptr13drop_in_placeSINtNtB4_6option6OptionIBI_NtNtNtNtCsaLOjE9VYtxK_3std12backtrace_rs9symbolize5gimli7MappingEEEB1f_, symObjAddr: 0x830C, symBinAddr: 0x100103DD8, symSize: 0xD0 }
  - { offset: 0x15FF0B, size: 0x8, addend: 0x0, symName: __RNvXsu_NtNtCs6sq8b9ugfBC_4core3ffi5c_strNtB5_22FromBytesUntilNulErrorNtNtB9_3fmt5Debug3fmt, symObjAddr: 0x4CD1C, symBinAddr: 0x100120614, symSize: 0x40 }
  - { offset: 0x15FF2E, size: 0x8, addend: 0x0, symName: __RINvNtCs6sq8b9ugfBC_4core9panicking13assert_failedhhECsaLOjE9VYtxK_3std, symObjAddr: 0x8584, symBinAddr: 0x10013415C, symSize: 0x28 }
  - { offset: 0x15FF49, size: 0x8, addend: 0x0, symName: __RINvNtCs6sq8b9ugfBC_4core9panicking13assert_failedllECsaLOjE9VYtxK_3std, symObjAddr: 0x85AC, symBinAddr: 0x100134184, symSize: 0x28 }
  - { offset: 0x160060, size: 0x8, addend: 0x0, symName: __RNvXs1i_NtCs6sq8b9ugfBC_4core3fmtRNtNtNtB8_5panic8location8LocationNtB6_7Display3fmtCsaLOjE9VYtxK_3std, symObjAddr: 0x40E98, symBinAddr: 0x10011E608, symSize: 0x60 }
  - { offset: 0x1600D8, size: 0x8, addend: 0x0, symName: __RNvXs1i_NtCs6sq8b9ugfBC_4core3fmtReNtB6_7Display3fmtCsaLOjE9VYtxK_3std, symObjAddr: 0x40EF8, symBinAddr: 0x10011E668, symSize: 0x10 }
  - { offset: 0x16011D, size: 0x8, addend: 0x0, symName: __RNvXs1g_NtCs6sq8b9ugfBC_4core3fmtRINtNtCs8dnTdrJsiec_5alloc3vec3VechENtB6_5Debug3fmtCsaLOjE9VYtxK_3std, symObjAddr: 0x40494, symBinAddr: 0x10011E51C, symSize: 0x70 }
  - { offset: 0x160241, size: 0x8, addend: 0x0, symName: __RNvXs1g_NtCs6sq8b9ugfBC_4core3fmtRINtNtCs8dnTdrJsiec_5alloc5boxed3BoxDNtNtB8_5error5ErrorNtNtB8_6marker4SyncNtB1r_4SendEL_ENtB6_5Debug3fmtCsaLOjE9VYtxK_3std, symObjAddr: 0x40504, symBinAddr: 0x10011E58C, symSize: 0x10 }
  - { offset: 0x160273, size: 0x8, addend: 0x0, symName: __RNvXs1g_NtCs6sq8b9ugfBC_4core3fmtRNtNtNtB8_3ffi5c_str4CStrNtB6_5Debug3fmtCsaLOjE9VYtxK_3std, symObjAddr: 0x4098C, symBinAddr: 0x10011E59C, symSize: 0x10 }
  - { offset: 0x16029C, size: 0x8, addend: 0x0, symName: __RNvXs1g_NtCs6sq8b9ugfBC_4core3fmtReNtB6_5Debug3fmtCsaLOjE9VYtxK_3std, symObjAddr: 0x40E20, symBinAddr: 0x10011E5AC, symSize: 0x10 }
  - { offset: 0x1602B0, size: 0x8, addend: 0x0, symName: __RNvXs1g_NtCs6sq8b9ugfBC_4core3fmtRhNtB6_5Debug3fmtCsaLOjE9VYtxK_3std, symObjAddr: 0x40E30, symBinAddr: 0x10011E5BC, symSize: 0x1C }
  - { offset: 0x1602F9, size: 0x8, addend: 0x0, symName: __RNvXs1g_NtCs6sq8b9ugfBC_4core3fmtRlNtB6_5Debug3fmtCsaLOjE9VYtxK_3std, symObjAddr: 0x40E4C, symBinAddr: 0x10011E5D8, symSize: 0x1C }
  - { offset: 0x160342, size: 0x8, addend: 0x0, symName: __RNvXs1g_NtCs6sq8b9ugfBC_4core3fmtRuNtB6_5Debug3fmtCsaLOjE9VYtxK_3std, symObjAddr: 0x40E84, symBinAddr: 0x10011E5F4, symSize: 0x14 }
  - { offset: 0x1603B2, size: 0x8, addend: 0x0, symName: __RNvXsQ_NtNtCs6sq8b9ugfBC_4core3fmt3numlNtB7_5Debug3fmt, symObjAddr: 0x46790, symBinAddr: 0x10011F2C8, symSize: 0x18 }
  - { offset: 0x1603CA, size: 0x8, addend: 0x0, symName: __RNvXsQ_NtNtCs6sq8b9ugfBC_4core3fmt3numlNtB7_5Debug3fmt, symObjAddr: 0x46790, symBinAddr: 0x10011F2C8, symSize: 0x18 }
  - { offset: 0x1603E4, size: 0x8, addend: 0x0, symName: __RNvXsZ_NtNtCs6sq8b9ugfBC_4core3fmt3numjNtB7_5Debug3fmt, symObjAddr: 0x46DA0, symBinAddr: 0x10011F4DC, symSize: 0x18 }
  - { offset: 0x1603FC, size: 0x8, addend: 0x0, symName: __RNvXsZ_NtNtCs6sq8b9ugfBC_4core3fmt3numjNtB7_5Debug3fmt, symObjAddr: 0x46DA0, symBinAddr: 0x10011F4DC, symSize: 0x18 }
  - { offset: 0x16043A, size: 0x8, addend: 0x0, symName: __RNvXs1j_NtCs6sq8b9ugfBC_4core3fmtQDNtNtB8_5panic12PanicPayloadEL_NtB6_7Display3fmtCsaLOjE9VYtxK_3std, symObjAddr: 0x40F08, symBinAddr: 0x10011E678, symSize: 0x10 }
  - { offset: 0x160486, size: 0x8, addend: 0x0, symName: __RNvXsq_NtCs6sq8b9ugfBC_4core3fmtONtNtB7_3ffi6c_voidNtB5_5Debug3fmtCsaLOjE9VYtxK_3std, symObjAddr: 0x4BF44, symBinAddr: 0x10011FE8C, symSize: 0x8 }
  - { offset: 0x1604A5, size: 0x8, addend: 0x0, symName: __RNvXsq_NtCs6sq8b9ugfBC_4core3fmtONtNtB7_3ffi6c_voidNtB5_5Debug3fmtCsaLOjE9VYtxK_3std, symObjAddr: 0x4BF44, symBinAddr: 0x10011FE8C, symSize: 0x8 }
  - { offset: 0x1604D6, size: 0x8, addend: 0x0, symName: __RNvYINtNvNtCsaLOjE9VYtxK_3std2io17default_write_fmt7AdapterINtNtB7_6cursor6CursorQShEENtNtCs6sq8b9ugfBC_4core3fmt5Write10write_charB9_, symObjAddr: 0x4D6C0, symBinAddr: 0x100120B8C, symSize: 0x138 }
  - { offset: 0x1606B5, size: 0x8, addend: 0x0, symName: __RNvYINtNvNtCsaLOjE9VYtxK_3std2io17default_write_fmt7AdapterINtNtB7_6cursor6CursorQShEENtNtCs6sq8b9ugfBC_4core3fmt5Write9write_fmtB9_, symObjAddr: 0x4D7F8, symBinAddr: 0x100120CC4, symSize: 0x14 }
  - { offset: 0x1606E5, size: 0x8, addend: 0x0, symName: __RNvYINtNvNtCsaLOjE9VYtxK_3std2io17default_write_fmt7AdapterINtNtCs8dnTdrJsiec_5alloc3vec3VechEENtNtCs6sq8b9ugfBC_4core3fmt5Write10write_charB9_, symObjAddr: 0x4D80C, symBinAddr: 0x100120CD8, symSize: 0x110 }
  - { offset: 0x1608AF, size: 0x8, addend: 0x0, symName: __RNvYINtNvNtCsaLOjE9VYtxK_3std2io17default_write_fmt7AdapterINtNtCs8dnTdrJsiec_5alloc3vec3VechEENtNtCs6sq8b9ugfBC_4core3fmt5Write9write_fmtB9_, symObjAddr: 0x4D91C, symBinAddr: 0x100120DE8, symSize: 0x14 }
  - { offset: 0x1608DF, size: 0x8, addend: 0x0, symName: __RNvYINtNvNtCsaLOjE9VYtxK_3std2io17default_write_fmt7AdapterNtNtNtNtB9_3sys5stdio4unix6StderrENtNtCs6sq8b9ugfBC_4core3fmt5Write10write_charB9_, symObjAddr: 0x4DBB0, symBinAddr: 0x100120DFC, symSize: 0xB0 }
  - { offset: 0x160953, size: 0x8, addend: 0x0, symName: __RNvYINtNvNtCsaLOjE9VYtxK_3std2io17default_write_fmt7AdapterNtNtNtNtB9_3sys5stdio4unix6StderrENtNtCs6sq8b9ugfBC_4core3fmt5Write9write_fmtB9_, symObjAddr: 0x4DC60, symBinAddr: 0x100120EAC, symSize: 0x14 }
  - { offset: 0x160983, size: 0x8, addend: 0x0, symName: __RNvYNtNtCs8dnTdrJsiec_5alloc6string6StringNtNtCs6sq8b9ugfBC_4core3fmt5Write9write_fmtCsaLOjE9VYtxK_3std, symObjAddr: 0x4DD40, symBinAddr: 0x100120EC8, symSize: 0x14 }
  - { offset: 0x160A06, size: 0x8, addend: 0x0, symName: __RNCNvNtNtCs6sq8b9ugfBC_4core3str7pattern13simd_containss0_0CsaLOjE9VYtxK_3std, symObjAddr: 0x14CB8, symBinAddr: 0x1001343EC, symSize: 0x100 }
  - { offset: 0x160C38, size: 0x8, addend: 0x0, symName: __RNvXst_NtNtCs6sq8b9ugfBC_4core3str7patternReNtB5_7Pattern15is_contained_in, symObjAddr: 0x4C4B0, symBinAddr: 0x10011FEB4, symSize: 0x760 }
  - { offset: 0x1614E8, size: 0x8, addend: 0x0, symName: __RNvYINtNvNtCsaLOjE9VYtxK_3std9panicking11begin_panic7PayloadReENtNtCs6sq8b9ugfBC_4core5panic12PanicPayload6as_strB9_, symObjAddr: 0x4DD38, symBinAddr: 0x100120EC0, symSize: 0x8 }
  - { offset: 0x1615F1, size: 0x8, addend: 0x0, symName: __RNvXNtCs6sq8b9ugfBC_4core3anyNtNtCs8dnTdrJsiec_5alloc6string6StringNtB2_3Any7type_idCsaLOjE9VYtxK_3std, symObjAddr: 0x3C904, symBinAddr: 0x10011DC9C, symSize: 0x14 }
  - { offset: 0x161610, size: 0x8, addend: 0x0, symName: __RNvXNtCs6sq8b9ugfBC_4core3anyNtNtCs8dnTdrJsiec_5alloc6string6StringNtB2_3Any7type_idCsaLOjE9VYtxK_3std, symObjAddr: 0x3C904, symBinAddr: 0x10011DC9C, symSize: 0x14 }
  - { offset: 0x161623, size: 0x8, addend: 0x0, symName: __RNvXNtCs6sq8b9ugfBC_4core3anyReNtB2_3Any7type_idCsaLOjE9VYtxK_3std, symObjAddr: 0x3C918, symBinAddr: 0x10011DCB0, symSize: 0x14 }
  - { offset: 0x161642, size: 0x8, addend: 0x0, symName: __RNvXNtCs6sq8b9ugfBC_4core3anyReNtB2_3Any7type_idCsaLOjE9VYtxK_3std, symObjAddr: 0x3C918, symBinAddr: 0x10011DCB0, symSize: 0x14 }
  - { offset: 0x1616CD, size: 0x8, addend: 0x0, symName: __RNvYNtNvXsf_NtNtCs8dnTdrJsiec_5alloc5boxed7convertINtBc_3BoxDNtNtCs6sq8b9ugfBC_4core5error5ErrorNtNtB11_6marker4SyncNtB1y_4SendEL_EINtNtB11_7convert4FromNtNtBe_6string6StringE4from11StringErrorBX_11descriptionCsaLOjE9VYtxK_3std, symObjAddr: 0x4E0B4, symBinAddr: 0x10012120C, symSize: 0x10 }
  - { offset: 0x1616E8, size: 0x8, addend: 0x0, symName: __RNvYNtNvXsf_NtNtCs8dnTdrJsiec_5alloc5boxed7convertINtBc_3BoxDNtNtCs6sq8b9ugfBC_4core5error5ErrorNtNtB11_6marker4SyncNtB1y_4SendEL_EINtNtB11_7convert4FromNtNtBe_6string6StringE4from11StringErrorBX_5causeCsaLOjE9VYtxK_3std, symObjAddr: 0x4E0C4, symBinAddr: 0x10012121C, symSize: 0x8 }
  - { offset: 0x161703, size: 0x8, addend: 0x0, symName: __RNvYNtNvXsf_NtNtCs8dnTdrJsiec_5alloc5boxed7convertINtBc_3BoxDNtNtCs6sq8b9ugfBC_4core5error5ErrorNtNtB11_6marker4SyncNtB1y_4SendEL_EINtNtB11_7convert4FromNtNtBe_6string6StringE4from11StringErrorBX_7provideCsaLOjE9VYtxK_3std, symObjAddr: 0x4E0CC, symBinAddr: 0x100121224, symSize: 0x4 }
  - { offset: 0x16171F, size: 0x8, addend: 0x0, symName: __RNvYNtNvXsf_NtNtCs8dnTdrJsiec_5alloc5boxed7convertINtBc_3BoxDNtNtCs6sq8b9ugfBC_4core5error5ErrorNtNtB11_6marker4SyncNtB1y_4SendEL_EINtNtB11_7convert4FromNtNtBe_6string6StringE4from11StringErrorBX_7type_idCsaLOjE9VYtxK_3std, symObjAddr: 0x4E0D0, symBinAddr: 0x100121228, symSize: 0x14 }
  - { offset: 0x16173E, size: 0x8, addend: 0x0, symName: __RNvYNtNvXsf_NtNtCs8dnTdrJsiec_5alloc5boxed7convertINtBc_3BoxDNtNtCs6sq8b9ugfBC_4core5error5ErrorNtNtB11_6marker4SyncNtB1y_4SendEL_EINtNtB11_7convert4FromNtNtBe_6string6StringE4from11StringErrorBX_7type_idCsaLOjE9VYtxK_3std, symObjAddr: 0x4E0D0, symBinAddr: 0x100121228, symSize: 0x14 }
  - { offset: 0x16179C, size: 0x8, addend: 0x0, symName: __RNvMs1_NtCs3S5NQbda6bJ_9addr2line8functionINtB5_8FunctionINtNtNtCsixjwb4TfRM4_5gimli4read12endian_slice11EndianSliceNtNtB10_9endianity12LittleEndianEE14parse_childrenCsaLOjE9VYtxK_3std, symObjAddr: 0x1D75C, symBinAddr: 0x10010F998, symSize: 0xEA8 }
  - { offset: 0x163108, size: 0x8, addend: 0x0, symName: __RINvNtCs3S5NQbda6bJ_9addr2line8function10name_entryINtNtNtCsixjwb4TfRM4_5gimli4read12endian_slice11EndianSliceNtNtBU_9endianity12LittleEndianEECsaLOjE9VYtxK_3std, symObjAddr: 0x53B8, symBinAddr: 0x100101FBC, symSize: 0x364 }
  - { offset: 0x1635ED, size: 0x8, addend: 0x0, symName: __RINvNtCs3S5NQbda6bJ_9addr2line8function9name_attrINtNtNtCsixjwb4TfRM4_5gimli4read12endian_slice11EndianSliceNtNtBS_9endianity12LittleEndianEECsaLOjE9VYtxK_3std, symObjAddr: 0x571C, symBinAddr: 0x100102320, symSize: 0x1C0 }
  - { offset: 0x163965, size: 0x8, addend: 0x0, symName: __RINvNtCs3S5NQbda6bJ_9addr2line4line11render_fileINtNtNtCsixjwb4TfRM4_5gimli4read12endian_slice11EndianSliceNtNtBR_9endianity12LittleEndianEECsaLOjE9VYtxK_3std, symObjAddr: 0x4F30, symBinAddr: 0x100101B34, symSize: 0x488 }
  - { offset: 0x1643CE, size: 0x8, addend: 0x0, symName: __RNvMs0_Cs3S5NQbda6bJ_9addr2lineINtB5_7ContextINtNtNtCsixjwb4TfRM4_5gimli4read12endian_slice11EndianSliceNtNtBO_9endianity12LittleEndianEE9find_unitCsaLOjE9VYtxK_3std, symObjAddr: 0x1A3B8, symBinAddr: 0x10010F288, symSize: 0x15C }
  - { offset: 0x16466F, size: 0x8, addend: 0x0, symName: __RNvMNtCs3S5NQbda6bJ_9addr2line4unitINtB2_7ResUnitINtNtNtCsixjwb4TfRM4_5gimli4read12endian_slice11EndianSliceNtNtBS_9endianity12LittleEndianEE25find_function_or_locationCsaLOjE9VYtxK_3std, symObjAddr: 0x162E0, symBinAddr: 0x10010EAE0, symSize: 0x380 }
  - { offset: 0x164B94, size: 0x8, addend: 0x0, symName: __RNCNvMNtCs3S5NQbda6bJ_9addr2line4unitINtB4_7ResUnitINtNtNtCsixjwb4TfRM4_5gimli4read12endian_slice11EndianSliceNtNtBU_9endianity12LittleEndianEE25find_function_or_location0CsaLOjE9VYtxK_3std, symObjAddr: 0x1420C, symBinAddr: 0x10010DFCC, symSize: 0x328 }
  - { offset: 0x165018, size: 0x8, addend: 0x0, symName: __RNvMs2_NtCs3S5NQbda6bJ_9addr2line6lookupINtB5_13LoopingLookupINtNtCs6sq8b9ugfBC_4core6result6ResultINtNtB7_5frame9FrameIterINtNtNtCsixjwb4TfRM4_5gimli4read12endian_slice11EndianSliceNtNtB24_9endianity12LittleEndianEENtB22_5ErrorEINtB5_12MappedLookupIBY_TINtNtB12_6option6OptionRINtNtB7_8function8FunctionB1X_EEIB45_NtB1C_8LocationEEB3s_EINtB5_12SimpleLookupIBY_TNtB7_9DebugFileINtNtB22_5dwarf7UnitRefB1X_EEB3s_EB1X_NCNvMNtB7_4unitINtB6K_7ResUnitB1X_E14dwarf_and_units4_0ENCNvB6J_25find_function_or_location0ENCNvMs_B7_INtB7_7ContextB1X_E11find_frames0E10new_lookupCsaLOjE9VYtxK_3std, symObjAddr: 0x1ED58, symBinAddr: 0x1001109F4, symSize: 0x44C }
  - { offset: 0x1655BA, size: 0x8, addend: 0x0, symName: __RNvMNtCs3S5NQbda6bJ_9addr2line5frameINtB2_9FrameIterINtNtNtCsixjwb4TfRM4_5gimli4read12endian_slice11EndianSliceNtNtBV_9endianity12LittleEndianEE4nextCsaLOjE9VYtxK_3std, symObjAddr: 0x16660, symBinAddr: 0x10010EE60, symSize: 0x2C0 }
  - { offset: 0x165E5E, size: 0x8, addend: 0x0, symName: __RNvMsb_NtNtCsixjwb4TfRM4_5gimli4read4unitINtB5_9AttributeINtNtB7_12endian_slice11EndianSliceNtNtB9_9endianity12LittleEndianEE5valueCsaLOjE9VYtxK_3std, symObjAddr: 0x2A794, symBinAddr: 0x100117264, symSize: 0x654 }
  - { offset: 0x166237, size: 0x8, addend: 0x0, symName: __RNvXsJ_NtNtCsixjwb4TfRM4_5gimli4read4unitINtB5_14AttributeValueINtNtB7_12endian_slice11EndianSliceNtNtB9_9endianity12LittleEndianEjENtNtCs6sq8b9ugfBC_4core5clone5Clone5cloneCsaLOjE9VYtxK_3std, symObjAddr: 0x466B8, symBinAddr: 0x10011F260, symSize: 0x68 }
  - { offset: 0x1662A6, size: 0x8, addend: 0x0, symName: __RNvMsc_NtNtCsixjwb4TfRM4_5gimli4read4unitINtB5_14AttributeValueINtNtB7_12endian_slice11EndianSliceNtNtB9_9endianity12LittleEndianEjE8u8_valueCsaLOjE9VYtxK_3std, symObjAddr: 0x2ADE8, symBinAddr: 0x1001178B8, symSize: 0x94 }
  - { offset: 0x1662DE, size: 0x8, addend: 0x0, symName: __RNvMsc_NtNtCsixjwb4TfRM4_5gimli4read4unitINtB5_14AttributeValueINtNtB7_12endian_slice11EndianSliceNtNtB9_9endianity12LittleEndianEjE9u16_valueCsaLOjE9VYtxK_3std, symObjAddr: 0x2AE7C, symBinAddr: 0x10011794C, symSize: 0x94 }
  - { offset: 0x16634F, size: 0x8, addend: 0x0, symName: __RINvNtNtCsixjwb4TfRM4_5gimli4read4unit15parse_attributeINtNtB4_12endian_slice11EndianSliceNtNtB6_9endianity12LittleEndianEECsaLOjE9VYtxK_3std, symObjAddr: 0x9B2C, symBinAddr: 0x100104C64, symSize: 0xF34 }
  - { offset: 0x168C2D, size: 0x8, addend: 0x0, symName: __RINvNtNtCsixjwb4TfRM4_5gimli4read4unit15skip_attributesINtNtB4_12endian_slice11EndianSliceNtNtB6_9endianity12LittleEndianEECsaLOjE9VYtxK_3std, symObjAddr: 0xAA60, symBinAddr: 0x100105B98, symSize: 0x4A0 }
  - { offset: 0x1694FA, size: 0x8, addend: 0x0, symName: __RNvMsf_NtNtCsixjwb4TfRM4_5gimli4read4unitINtB5_13EntriesCursorINtNtB7_12endian_slice11EndianSliceNtNtB9_9endianity12LittleEndianEE10next_entryCsaLOjE9VYtxK_3std, symObjAddr: 0x2BDD8, symBinAddr: 0x1001188A8, symSize: 0x2B8 }
  - { offset: 0x169B6E, size: 0x8, addend: 0x0, symName: __RNvMs6_NtNtCsixjwb4TfRM4_5gimli4read4unitINtB5_24DebugInfoUnitHeadersIterINtNtB7_12endian_slice11EndianSliceNtNtB9_9endianity12LittleEndianEE4nextCsaLOjE9VYtxK_3std, symObjAddr: 0x22598, symBinAddr: 0x100112CFC, symSize: 0x434 }
  - { offset: 0x16ABF5, size: 0x8, addend: 0x0, symName: __RNvMs4_NtNtCsixjwb4TfRM4_5gimli4read5dwarfINtB5_4UnitINtNtB7_12endian_slice11EndianSliceNtNtB9_9endianity12LittleEndianEjE3newCsaLOjE9VYtxK_3std, symObjAddr: 0x20438, symBinAddr: 0x100110E40, symSize: 0x1B88 }
  - { offset: 0x16E73B, size: 0x8, addend: 0x0, symName: __RNvMs0_NtNtCsixjwb4TfRM4_5gimli4read5dwarfINtB5_5DwarfINtNtB7_12endian_slice11EndianSliceNtNtB9_9endianity12LittleEndianEE11attr_stringCsaLOjE9VYtxK_3std, symObjAddr: 0x1A710, symBinAddr: 0x10010F3E4, symSize: 0x220 }
  - { offset: 0x16F0D5, size: 0x8, addend: 0x0, symName: __RNvYINtNtNtCsixjwb4TfRM4_5gimli4read12endian_slice11EndianSliceNtNtB9_9endianity12LittleEndianENtNtB7_6reader6Reader11read_offsetCsaLOjE9VYtxK_3std, symObjAddr: 0x4D224, symBinAddr: 0x1001206F0, symSize: 0x88 }
  - { offset: 0x16F2F1, size: 0x8, addend: 0x0, symName: __RNvYINtNtNtCsixjwb4TfRM4_5gimli4read12endian_slice11EndianSliceNtNtB9_9endianity12LittleEndianENtNtB7_6reader6Reader12read_sleb128CsaLOjE9VYtxK_3std, symObjAddr: 0x4D2AC, symBinAddr: 0x100120778, symSize: 0x23C }
  - { offset: 0x16F3C9, size: 0x8, addend: 0x0, symName: __RNvYINtNtNtCsixjwb4TfRM4_5gimli4read12endian_slice11EndianSliceNtNtB9_9endianity12LittleEndianENtNtB7_6reader6Reader12read_uleb128CsaLOjE9VYtxK_3std, symObjAddr: 0x4D4E8, symBinAddr: 0x1001209B4, symSize: 0xB8 }
  - { offset: 0x16F48E, size: 0x8, addend: 0x0, symName: __RNvYINtNtNtCsixjwb4TfRM4_5gimli4read12endian_slice11EndianSliceNtNtB9_9endianity12LittleEndianENtNtB7_6reader6Reader17read_sized_offsetCsaLOjE9VYtxK_3std, symObjAddr: 0x4D5A0, symBinAddr: 0x100120A6C, symSize: 0x120 }
  - { offset: 0x16FB19, size: 0x8, addend: 0x0, symName: __RNvMsc_NtNtCsixjwb4TfRM4_5gimli4read8rnglistsINtB5_11RngListIterINtNtB7_12endian_slice11EndianSliceNtNtB9_9endianity12LittleEndianEE4nextCsaLOjE9VYtxK_3std, symObjAddr: 0x2AF10, symBinAddr: 0x1001179E0, symSize: 0xCAC }
  - { offset: 0x1725CB, size: 0x8, addend: 0x0, symName: __RNvMsd_NtNtCsixjwb4TfRM4_5gimli4read4lineINtB5_9FileEntryINtNtB7_12endian_slice11EndianSliceNtNtB9_9endianity12LittleEndianEjE5parseCsaLOjE9VYtxK_3std, symObjAddr: 0x2BBBC, symBinAddr: 0x10011868C, symSize: 0x21C }
  - { offset: 0x172875, size: 0x8, addend: 0x0, symName: __RINvMse_NtNtCsixjwb4TfRM4_5gimli4read4lineNtB6_15FileEntryFormat5parseINtNtB8_12endian_slice11EndianSliceNtNtBa_9endianity12LittleEndianEECsaLOjE9VYtxK_3std, symObjAddr: 0x4A1C, symBinAddr: 0x1001017CC, symSize: 0x368 }
  - { offset: 0x173053, size: 0x8, addend: 0x0, symName: __RINvNtNtCsixjwb4TfRM4_5gimli4read4line13parse_file_v5INtNtB4_12endian_slice11EndianSliceNtNtB6_9endianity12LittleEndianEECsaLOjE9VYtxK_3std, symObjAddr: 0x8FA0, symBinAddr: 0x1001040D8, symSize: 0x2A8 }
  - { offset: 0x1731F4, size: 0x8, addend: 0x0, symName: __RINvNtNtCsixjwb4TfRM4_5gimli4read4line15parse_attributeINtNtB4_12endian_slice11EndianSliceNtNtB6_9endianity12LittleEndianEECsaLOjE9VYtxK_3std, symObjAddr: 0x9248, symBinAddr: 0x100104380, symSize: 0x800 }
  - { offset: 0x1746AC, size: 0x8, addend: 0x0, symName: __RINvNtNtCsixjwb4TfRM4_5gimli4read4line18parse_directory_v5INtNtB4_12endian_slice11EndianSliceNtNtB6_9endianity12LittleEndianEECsaLOjE9VYtxK_3std, symObjAddr: 0x9A48, symBinAddr: 0x100104B80, symSize: 0xE4 }
  - { offset: 0x174774, size: 0x8, addend: 0x0, symName: __RNvXs11_NtNtCsixjwb4TfRM4_5gimli4read4lineINtB6_9FileEntryINtNtB8_12endian_slice11EndianSliceNtNtBa_9endianity12LittleEndianEjENtNtCs6sq8b9ugfBC_4core5clone5Clone5cloneCsaLOjE9VYtxK_3std, symObjAddr: 0x3F6A0, symBinAddr: 0x10011E1E4, symSize: 0x1D4 }
  - { offset: 0x17484B, size: 0x8, addend: 0x0, symName: __RNvMs4_NtNtCsixjwb4TfRM4_5gimli4read7arangesINtB5_12ArangeHeaderINtNtB7_12endian_slice11EndianSliceNtNtB9_9endianity12LittleEndianEjE5parseCsaLOjE9VYtxK_3std, symObjAddr: 0x21FC0, symBinAddr: 0x1001129C8, symSize: 0x2BC }
  - { offset: 0x174876, size: 0x8, addend: 0x0, symName: __RNvMs4_NtNtCsixjwb4TfRM4_5gimli4read7arangesINtB5_12ArangeHeaderINtNtB7_12endian_slice11EndianSliceNtNtB9_9endianity12LittleEndianEjE5parseCsaLOjE9VYtxK_3std, symObjAddr: 0x21FC0, symBinAddr: 0x1001129C8, symSize: 0x2BC }
  - { offset: 0x17488C, size: 0x8, addend: 0x0, symName: __RNvMs4_NtNtCsixjwb4TfRM4_5gimli4read7arangesINtB5_12ArangeHeaderINtNtB7_12endian_slice11EndianSliceNtNtB9_9endianity12LittleEndianEjE5parseCsaLOjE9VYtxK_3std, symObjAddr: 0x21FC0, symBinAddr: 0x1001129C8, symSize: 0x2BC }
  - { offset: 0x1748A2, size: 0x8, addend: 0x0, symName: __RNvMs4_NtNtCsixjwb4TfRM4_5gimli4read7arangesINtB5_12ArangeHeaderINtNtB7_12endian_slice11EndianSliceNtNtB9_9endianity12LittleEndianEjE5parseCsaLOjE9VYtxK_3std, symObjAddr: 0x21FC0, symBinAddr: 0x1001129C8, symSize: 0x2BC }
  - { offset: 0x175001, size: 0x8, addend: 0x0, symName: __RNvMs8_NtNtCsixjwb4TfRM4_5gimli4read5indexINtB5_9UnitIndexINtNtB7_12endian_slice11EndianSliceNtNtB9_9endianity12LittleEndianEE5parseCsaLOjE9VYtxK_3std, symObjAddr: 0x22FEC, symBinAddr: 0x1001134B0, symSize: 0x7D0 }
  - { offset: 0x175ADE, size: 0x8, addend: 0x0, symName: __RNvMsn_NtCs8dnTdrJsiec_5alloc4syncINtB5_3ArcINtNtNtCs6sq8b9ugfBC_4core3mem12maybe_uninit11MaybeUninitNtNtNtCsaLOjE9VYtxK_3std6thread6thread5InnerENtNtB1H_5alloc6SystemE9drop_slowB1H_, symObjAddr: 0x2E450, symBinAddr: 0x100118D44, symSize: 0x2C }
  - { offset: 0x175BC4, size: 0x8, addend: 0x0, symName: __RNvMsn_NtCs8dnTdrJsiec_5alloc4syncINtB5_3ArcINtNtNtCsixjwb4TfRM4_5gimli4read5dwarf5DwarfINtNtBL_12endian_slice11EndianSliceNtNtBN_9endianity12LittleEndianEEE9drop_slowCsaLOjE9VYtxK_3std, symObjAddr: 0x2E47C, symBinAddr: 0x100118D70, symSize: 0xD0 }
  - { offset: 0x175E4E, size: 0x8, addend: 0x0, symName: __RNvMsn_NtCs8dnTdrJsiec_5alloc4syncINtB5_3ArcINtNtNtNtCsaLOjE9VYtxK_3std4sync6poison5mutex5MutexINtNtB7_3vec3VechEEE9drop_slowBP_, symObjAddr: 0x2E54C, symBinAddr: 0x100118E40, symSize: 0xA0 }
  - { offset: 0x1761F2, size: 0x8, addend: 0x0, symName: __RNvMsn_NtCs8dnTdrJsiec_5alloc4syncINtB5_3ArcNtNtNtCsaLOjE9VYtxK_3std6thread6thread5InnerNtNtBM_5alloc6SystemE9drop_slowBM_, symObjAddr: 0x2E5EC, symBinAddr: 0x100118EE0, symSize: 0x70 }
  - { offset: 0x1763FF, size: 0x8, addend: 0x0, symName: __RNvMsn_NtCs8dnTdrJsiec_5alloc4syncINtB5_3ArcNtNtNtCsixjwb4TfRM4_5gimli4read6abbrev13AbbreviationsE9drop_slowCsaLOjE9VYtxK_3std, symObjAddr: 0x2E6F4, symBinAddr: 0x100118F50, symSize: 0x98 }
  - { offset: 0x17660B, size: 0x8, addend: 0x0, symName: __RNvMsn_NtCs8dnTdrJsiec_5alloc4syncINtB5_3ArcNtNtNtNtCsaLOjE9VYtxK_3std3sys2fs4unix12InnerReadDirE9drop_slowBO_, symObjAddr: 0x2E78C, symBinAddr: 0x100118FE8, symSize: 0xC0 }
  - { offset: 0x177F44, size: 0x8, addend: 0x0, symName: __RNvMs4_NtCs8dnTdrJsiec_5alloc7raw_vecINtB5_11RawVecInnerNtNtCsaLOjE9VYtxK_3std5alloc6SystemE11finish_growBW_, symObjAddr: 0x20280, symBinAddr: 0x100134B20, symSize: 0x94 }
  - { offset: 0x178064, size: 0x8, addend: 0x0, symName: __RNvMs4_NtCs8dnTdrJsiec_5alloc7raw_vecINtB5_11RawVecInnerNtNtCsaLOjE9VYtxK_3std5alloc6SystemE14grow_amortizedBW_, symObjAddr: 0x20314, symBinAddr: 0x100134BB4, symSize: 0x70 }
  - { offset: 0x1787D9, size: 0x8, addend: 0x0, symName: __RNvMs3_NtCs8dnTdrJsiec_5alloc7raw_vecINtB5_6RawVecINtNtB7_5boxed3BoxDINtNtNtCs6sq8b9ugfBC_4core3ops8function5FnMutuEp6OutputINtNtB1c_6result6ResultuNtNtNtCsaLOjE9VYtxK_3std2io5error5ErrorENtNtB1c_6marker4SyncNtB32_4SendEL_EE8grow_oneB2s_, symObjAddr: 0x1FA64, symBinAddr: 0x100134680, symSize: 0x68 }
  - { offset: 0x178862, size: 0x8, addend: 0x0, symName: __RNvMs3_NtCs8dnTdrJsiec_5alloc7raw_vecINtB5_6RawVecINtNtCs3S5NQbda6bJ_9addr2line4unit7ResUnitINtNtNtCsixjwb4TfRM4_5gimli4read12endian_slice11EndianSliceNtNtB1z_9endianity12LittleEndianEEE8grow_oneCsaLOjE9VYtxK_3std, symObjAddr: 0x1FACC, symBinAddr: 0x1001346E8, symSize: 0x68 }
  - { offset: 0x1788EB, size: 0x8, addend: 0x0, symName: __RNvMs3_NtCs8dnTdrJsiec_5alloc7raw_vecINtB5_6RawVecINtNtCs3S5NQbda6bJ_9addr2line4unit7SupUnitINtNtNtCsixjwb4TfRM4_5gimli4read12endian_slice11EndianSliceNtNtB1z_9endianity12LittleEndianEEE8grow_oneCsaLOjE9VYtxK_3std, symObjAddr: 0x1FB34, symBinAddr: 0x100134750, symSize: 0x68 }
  - { offset: 0x178974, size: 0x8, addend: 0x0, symName: __RNvMs3_NtCs8dnTdrJsiec_5alloc7raw_vecINtB5_6RawVecINtNtCs3S5NQbda6bJ_9addr2line8function12LazyFunctionINtNtNtCsixjwb4TfRM4_5gimli4read12endian_slice11EndianSliceNtNtB1J_9endianity12LittleEndianEEE8grow_oneCsaLOjE9VYtxK_3std, symObjAddr: 0x1FB9C, symBinAddr: 0x1001347B8, symSize: 0x68 }
  - { offset: 0x1789FD, size: 0x8, addend: 0x0, symName: __RNvMs3_NtCs8dnTdrJsiec_5alloc7raw_vecINtB5_6RawVecINtNtCs3S5NQbda6bJ_9addr2line8function15InlinedFunctionINtNtNtCsixjwb4TfRM4_5gimli4read12endian_slice11EndianSliceNtNtB1M_9endianity12LittleEndianEEE8grow_oneCsaLOjE9VYtxK_3std, symObjAddr: 0x1FC04, symBinAddr: 0x100134820, symSize: 0x68 }
  - { offset: 0x178A86, size: 0x8, addend: 0x0, symName: __RNvMs3_NtCs8dnTdrJsiec_5alloc7raw_vecINtB5_6RawVecINtNtNtCsixjwb4TfRM4_5gimli4read4line9FileEntryINtNtBR_12endian_slice11EndianSliceNtNtBT_9endianity12LittleEndianEjEE8grow_oneCsaLOjE9VYtxK_3std, symObjAddr: 0x1FC6C, symBinAddr: 0x100134888, symSize: 0x68 }
  - { offset: 0x178B0F, size: 0x8, addend: 0x0, symName: __RNvMs3_NtCs8dnTdrJsiec_5alloc7raw_vecINtB5_6RawVecINtNtNtCsixjwb4TfRM4_5gimli4read4unit14AttributeValueINtNtBR_12endian_slice11EndianSliceNtNtBT_9endianity12LittleEndianEjEE8grow_oneCsaLOjE9VYtxK_3std, symObjAddr: 0x1FCD4, symBinAddr: 0x1001348F0, symSize: 0x68 }
  - { offset: 0x178B98, size: 0x8, addend: 0x0, symName: __RNvMs3_NtCs8dnTdrJsiec_5alloc7raw_vecINtB5_6RawVecNtNtCs3S5NQbda6bJ_9addr2line4line12LineSequenceE8grow_oneCsaLOjE9VYtxK_3std, symObjAddr: 0x1FD3C, symBinAddr: 0x100134958, symSize: 0x68 }
  - { offset: 0x178C21, size: 0x8, addend: 0x0, symName: __RNvMs3_NtCs8dnTdrJsiec_5alloc7raw_vecINtB5_6RawVecNtNtCsgmVNXhSCXCV_6object4read14ObjectMapEntryE8grow_oneCsaLOjE9VYtxK_3std, symObjAddr: 0x1FE0C, symBinAddr: 0x1001349C0, symSize: 0x68 }
  - { offset: 0x178CAA, size: 0x8, addend: 0x0, symName: __RNvMs3_NtCs8dnTdrJsiec_5alloc7raw_vecINtB5_6RawVecNtNtNtCsixjwb4TfRM4_5gimli4read4line15FileEntryFormatE8grow_oneCsaLOjE9VYtxK_3std, symObjAddr: 0x1FE74, symBinAddr: 0x100134A28, symSize: 0x68 }
  - { offset: 0x178D33, size: 0x8, addend: 0x0, symName: __RNvMs3_NtCs8dnTdrJsiec_5alloc7raw_vecINtB5_6RawVecPaE8grow_oneCsaLOjE9VYtxK_3std, symObjAddr: 0x1FEDC, symBinAddr: 0x100134A90, symSize: 0x68 }
  - { offset: 0x178DBC, size: 0x8, addend: 0x0, symName: __RNvMs3_NtCs8dnTdrJsiec_5alloc7raw_vecINtB5_6RawVecTOhFUKCBN_EuENtNtCsaLOjE9VYtxK_3std5alloc6SystemE8grow_oneB13_, symObjAddr: 0x1FF44, symBinAddr: 0x100134AF8, symSize: 0x28 }
  - { offset: 0x17922A, size: 0x8, addend: 0x0, symName: __RINvNvMs2_NtCs8dnTdrJsiec_5alloc7raw_vecINtB8_11RawVecInnerpE7reserve21do_reserve_and_handleNtNtBa_5alloc6GlobalECsaLOjE9VYtxK_3std, symObjAddr: 0x12E9C, symBinAddr: 0x10013432C, symSize: 0x8C }
  - { offset: 0x1793E5, size: 0x8, addend: 0x0, symName: __RNvMsz_NtNtNtCs8dnTdrJsiec_5alloc11collections5btree3mapINtB5_8IntoIteryINtNtCs6sq8b9ugfBC_4core6result6ResultINtNtBb_4sync3ArcNtNtNtCsixjwb4TfRM4_5gimli4read6abbrev13AbbreviationsENtB25_5ErrorEE10dying_nextCsaLOjE9VYtxK_3std, symObjAddr: 0x2F72C, symBinAddr: 0x1001190A8, symSize: 0x200 }
  - { offset: 0x17981F, size: 0x8, addend: 0x0, symName: __RNvMsz_NtNtNtCs8dnTdrJsiec_5alloc11collections5btree3mapINtB5_8IntoIteryNtNtNtCsixjwb4TfRM4_5gimli4read6abbrev12AbbreviationE10dying_nextCsaLOjE9VYtxK_3std, symObjAddr: 0x2F92C, symBinAddr: 0x1001192A8, symSize: 0x200 }
  - { offset: 0x17A5D2, size: 0x8, addend: 0x0, symName: __RNvNtCs8dnTdrJsiec_5alloc5boxed14box_new_uninit, symObjAddr: 0x2FB2C, symBinAddr: 0x1001194A8, symSize: 0x48 }
  - { offset: 0x17A7B0, size: 0x8, addend: 0x0, symName: __RNvXsZ_NtCs8dnTdrJsiec_5alloc6stringNtB5_6StringNtNtCs6sq8b9ugfBC_4core3fmt5Write10write_char, symObjAddr: 0x46C00, symBinAddr: 0x10011F33C, symSize: 0x11C }
  - { offset: 0x17A966, size: 0x8, addend: 0x0, symName: __RNvXsZ_NtCs8dnTdrJsiec_5alloc6stringNtB5_6StringNtNtCs6sq8b9ugfBC_4core3fmt5Write9write_str, symObjAddr: 0x46D1C, symBinAddr: 0x10011F458, symSize: 0x84 }
  - { offset: 0x17AAD1, size: 0x8, addend: 0x0, symName: __RNvXsq_NtCs8dnTdrJsiec_5alloc6stringNtB5_6StringNtNtCs6sq8b9ugfBC_4core3fmt7Display3fmt, symObjAddr: 0x4BFB8, symBinAddr: 0x10011FE94, symSize: 0x10 }
  - { offset: 0x17AB94, size: 0x8, addend: 0x0, symName: __RNvXsr_NtCs8dnTdrJsiec_5alloc6stringNtB5_6StringNtNtCs6sq8b9ugfBC_4core3fmt5Debug3fmt, symObjAddr: 0x4C018, symBinAddr: 0x10011FEA4, symSize: 0x10 }
  - { offset: 0x17AC73, size: 0x8, addend: 0x0, symName: __RNvXsa_NtCs8dnTdrJsiec_5alloc6borrowINtB5_3CowNtNtCsaLOjE9VYtxK_3std4path4PathENtNtCs6sq8b9ugfBC_4core3fmt5Debug3fmtBM_, symObjAddr: 0x48D14, symBinAddr: 0x10011F69C, symSize: 0x34 }
  - { offset: 0x17AD0B, size: 0x8, addend: 0x0, symName: __RNvXsX_NtNtCs8dnTdrJsiec_5alloc3ffi5c_strNtB5_8NulErrorNtNtCs6sq8b9ugfBC_4core3fmt5Debug3fmt, symObjAddr: 0x46BB4, symBinAddr: 0x10011F2F0, symSize: 0x4C }
  - { offset: 0x17ADFF, size: 0x8, addend: 0x0, symName: __RNCINvNtNtCsaLOjE9VYtxK_3std6thread7current17with_current_nameNCNCNvNtB8_9panicking12default_hook00uE0B8_, symObjAddr: 0x1395C, symBinAddr: 0x10010DAA0, symSize: 0x2E8 }
  - { offset: 0x17B255, size: 0x8, addend: 0x0, symName: __RNvNtNtCsaLOjE9VYtxK_3std6thread7current12init_current, symObjAddr: 0x34074, symBinAddr: 0x100134C48, symSize: 0x13C }
  - { offset: 0x17B54B, size: 0x8, addend: 0x0, symName: __RNvNtNtCsaLOjE9VYtxK_3std6thread7current7current, symObjAddr: 0x3426C, symBinAddr: 0x10011A284, symSize: 0x48 }
  - { offset: 0x17B69E, size: 0x8, addend: 0x0, symName: __RNvMs_NtNtCsaLOjE9VYtxK_3std6thread6threadNtB4_6Thread3new, symObjAddr: 0x251E8, symBinAddr: 0x1001140D0, symSize: 0x18C }
  - { offset: 0x17BA4B, size: 0x8, addend: 0x0, symName: __RNvXNtNtNtCsaLOjE9VYtxK_3std6thread6thread18thread_name_stringNtB2_16ThreadNameStringINtNtCs6sq8b9ugfBC_4core7convert4FromNtNtCs8dnTdrJsiec_5alloc6string6StringE4from, symObjAddr: 0x3DBF8, symBinAddr: 0x10011DCC8, symSize: 0x128 }
  - { offset: 0x17BCA2, size: 0x8, addend: 0x0, symName: __RNvNvMNtNtCsaLOjE9VYtxK_3std6thread2idNtB4_8ThreadId3new9exhausted, symObjAddr: 0x3B7C0, symBinAddr: 0x10013572C, symSize: 0x20 }
  - { offset: 0x17BCDF, size: 0x8, addend: 0x0, symName: __RNvNtNtCsaLOjE9VYtxK_3std6thread9functions4park, symObjAddr: 0x34594, symBinAddr: 0x10011A2CC, symSize: 0xC8 }
  - { offset: 0x17BF3E, size: 0x8, addend: 0x0, symName: __RNvXNtNtCsaLOjE9VYtxK_3std6thread9functionsNtB2_10PanicGuardNtNtNtCs6sq8b9ugfBC_4core3ops4drop4Drop4drop, symObjAddr: 0x3D3C8, symBinAddr: 0x1001357AC, symSize: 0x30 }
  - { offset: 0x17C07D, size: 0x8, addend: 0x0, symName: __RINvNtNtNtNtCsaLOjE9VYtxK_3std3sys12thread_local6native5eager7destroyINtNtCs6sq8b9ugfBC_4core4cell4CellINtNtB1a_6option6OptionINtNtCs8dnTdrJsiec_5alloc4sync3ArcINtNtNtNtBa_4sync6poison5mutex5MutexINtNtB25_3vec3VechEEEEEEBa_, symObjAddr: 0x12DEC, symBinAddr: 0x10010D948, symSize: 0x2C }
  - { offset: 0x17C20B, size: 0x8, addend: 0x0, symName: __RNvNvNtNtNtNtCsaLOjE9VYtxK_3std3sys12thread_local5guard5apple6enable9run_dtors, symObjAddr: 0x3C814, symBinAddr: 0x10011DBAC, symSize: 0xF0 }
  - { offset: 0x17C6DD, size: 0x8, addend: 0x0, symName: __RNvNtNtNtNtCsaLOjE9VYtxK_3std3sys12thread_local11destructors4list8register, symObjAddr: 0x398B0, symBinAddr: 0x10011D6D8, symSize: 0xFC }
  - { offset: 0x17CA48, size: 0x8, addend: 0x0, symName: __RINvMNtNtNtCsaLOjE9VYtxK_3std3sys4sync8once_boxINtB3_7OnceBoxNtNtNtNtNtB7_3pal4unix4sync5mutex5MutexE10initializeNCNvMNtNtB5_5mutex7pthreadNtB1S_5Mutex3get0EB9_, symObjAddr: 0x2D64, symBinAddr: 0x100134078, symSize: 0xE4 }
  - { offset: 0x17CC99, size: 0x8, addend: 0x0, symName: __RNvMs1_NtNtNtNtCsaLOjE9VYtxK_3std3sys4sync6rwlock5queueNtB5_6RwLock12unlock_queue, symObjAddr: 0x1E82C, symBinAddr: 0x100110840, symSize: 0x1B4 }
  - { offset: 0x17D372, size: 0x8, addend: 0x0, symName: __RNvMs1_NtNtNtNtCsaLOjE9VYtxK_3std3sys4sync6rwlock5queueNtB5_6RwLock16unlock_contended, symObjAddr: 0x1ECD8, symBinAddr: 0x100134600, symSize: 0x40 }
  - { offset: 0x17D441, size: 0x8, addend: 0x0, symName: __RNvMs1_NtNtNtNtCsaLOjE9VYtxK_3std3sys4sync6rwlock5queueNtB5_6RwLock21read_unlock_contended, symObjAddr: 0x1ED18, symBinAddr: 0x100134640, symSize: 0x40 }
  - { offset: 0x17D460, size: 0x8, addend: 0x0, symName: __RNvMs1_NtNtNtNtCsaLOjE9VYtxK_3std3sys4sync6rwlock5queueNtB5_6RwLock21read_unlock_contended, symObjAddr: 0x1ED18, symBinAddr: 0x100134640, symSize: 0x40 }
  - { offset: 0x17D476, size: 0x8, addend: 0x0, symName: __RNvMs1_NtNtNtNtCsaLOjE9VYtxK_3std3sys4sync6rwlock5queueNtB5_6RwLock21read_unlock_contended, symObjAddr: 0x1ED18, symBinAddr: 0x100134640, symSize: 0x40 }
  - { offset: 0x17D6DE, size: 0x8, addend: 0x0, symName: __RNvXs0_NtNtNtNtCsaLOjE9VYtxK_3std3sys4sync6rwlock5queueNtB5_10PanicGuardNtNtNtCs6sq8b9ugfBC_4core3ops4drop4Drop4drop, symObjAddr: 0x3F540, symBinAddr: 0x1001357DC, symSize: 0x30 }
  - { offset: 0x17D728, size: 0x8, addend: 0x0, symName: __RNvMs0_NtNtNtNtCsaLOjE9VYtxK_3std3sys4sync14thread_parking6darwinNtB5_6Parker6unpark, symObjAddr: 0x1B644, symBinAddr: 0x10010F604, symSize: 0x20 }
  - { offset: 0x17D740, size: 0x8, addend: 0x0, symName: __RNvMs0_NtNtNtNtCsaLOjE9VYtxK_3std3sys4sync14thread_parking6darwinNtB5_6Parker6unpark, symObjAddr: 0x1B644, symBinAddr: 0x10010F604, symSize: 0x20 }
  - { offset: 0x17D755, size: 0x8, addend: 0x0, symName: __RNvMs0_NtNtNtNtCsaLOjE9VYtxK_3std3sys4sync14thread_parking6darwinNtB5_6Parker6unpark, symObjAddr: 0x1B644, symBinAddr: 0x10010F604, symSize: 0x20 }
  - { offset: 0x17D76B, size: 0x8, addend: 0x0, symName: __RNvMs0_NtNtNtNtCsaLOjE9VYtxK_3std3sys4sync14thread_parking6darwinNtB5_6Parker6unpark, symObjAddr: 0x1B644, symBinAddr: 0x10010F604, symSize: 0x20 }
  - { offset: 0x17D80D, size: 0x8, addend: 0x0, symName: __RNvMNtNtNtNtNtCsaLOjE9VYtxK_3std3sys3pal4unix4sync5mutexNtB2_5Mutex4init, symObjAddr: 0x1A1DC, symBinAddr: 0x10010F120, symSize: 0x168 }
  - { offset: 0x17D8DF, size: 0x8, addend: 0x0, symName: __RNvNvMNtNtNtNtNtCsaLOjE9VYtxK_3std3sys3pal4unix4sync5mutexNtB4_5Mutex4lock4fail, symObjAddr: 0x3B7E0, symBinAddr: 0x10013574C, symSize: 0x60 }
  - { offset: 0x17D96B, size: 0x8, addend: 0x0, symName: __RNvNtNtNtCsaLOjE9VYtxK_3std3sys3pal4unix14abort_internal, symObjAddr: 0x38EC0, symBinAddr: 0x100135720, symSize: 0xC }
  - { offset: 0x17DAA2, size: 0x8, addend: 0x0, symName: __RNCNvNtNtNtCsaLOjE9VYtxK_3std3sys16platform_version6darwin18string_version_keys_0B9_, symObjAddr: 0x1547C, symBinAddr: 0x1001344EC, symSize: 0x50 }
  - { offset: 0x17DC05, size: 0x8, addend: 0x0, symName: __RNCNvNtNtNtCsaLOjE9VYtxK_3std3sys16platform_version6darwin18version_from_plist0B9_, symObjAddr: 0x154CC, symBinAddr: 0x10013453C, symSize: 0x64 }
  - { offset: 0x17DCAC, size: 0x8, addend: 0x0, symName: __RNvNtNtNtCsaLOjE9VYtxK_3std3sys16platform_version6darwin14lookup_version, symObjAddr: 0x372B4, symBinAddr: 0x100134DB0, symSize: 0x970 }
  - { offset: 0x17E9B2, size: 0x8, addend: 0x0, symName: __RNvNtNtNtCsaLOjE9VYtxK_3std3sys16platform_version6darwin16parse_os_version, symObjAddr: 0x37C24, symBinAddr: 0x10011CABC, symSize: 0x6C8 }
  - { offset: 0x17E9D1, size: 0x8, addend: 0x0, symName: __RNvNtNtNtCsaLOjE9VYtxK_3std3sys16platform_version6darwin16parse_os_version, symObjAddr: 0x37C24, symBinAddr: 0x10011CABC, symSize: 0x6C8 }
  - { offset: 0x17E9E7, size: 0x8, addend: 0x0, symName: __RNvNtNtNtCsaLOjE9VYtxK_3std3sys16platform_version6darwin16parse_os_version, symObjAddr: 0x37C24, symBinAddr: 0x10011CABC, symSize: 0x6C8 }
  - { offset: 0x17F006, size: 0x8, addend: 0x0, symName: ___isPlatformVersionAtLeast, symObjAddr: 0x4E3F8, symBinAddr: 0x10012123C, symSize: 0x84 }
  - { offset: 0x17F1A9, size: 0x8, addend: 0x0, symName: __RNvXs3_NtNtNtCsaLOjE9VYtxK_3std3sys5stdio4unixNtB5_6StderrNtNtBb_2io5Write14write_vectored, symObjAddr: 0x42748, symBinAddr: 0x10011E79C, symSize: 0x54 }
  - { offset: 0x17F286, size: 0x8, addend: 0x0, symName: __RNvXs3_NtNtNtCsaLOjE9VYtxK_3std3sys5stdio4unixNtB5_6StderrNtNtBb_2io5Write17is_write_vectored, symObjAddr: 0x4279C, symBinAddr: 0x10011E7F0, symSize: 0x8 }
  - { offset: 0x17F2A0, size: 0x8, addend: 0x0, symName: __RNvXs3_NtNtNtCsaLOjE9VYtxK_3std3sys5stdio4unixNtB5_6StderrNtNtBb_2io5Write5flush, symObjAddr: 0x427A4, symBinAddr: 0x10011E7F8, symSize: 0x8 }
  - { offset: 0x17F2BA, size: 0x8, addend: 0x0, symName: __RNvXs3_NtNtNtCsaLOjE9VYtxK_3std3sys5stdio4unixNtB5_6StderrNtNtBb_2io5Write5write, symObjAddr: 0x427AC, symBinAddr: 0x10011E800, symSize: 0x54 }
  - { offset: 0x17F3B9, size: 0x8, addend: 0x0, symName: __RNvNtNtNtNtCsaLOjE9VYtxK_3std3sys2io5error4unix17decode_error_kind, symObjAddr: 0x39D60, symBinAddr: 0x10011D7D4, symSize: 0x150 }
  - { offset: 0x17F45B, size: 0x8, addend: 0x0, symName: __RNvMsi_NtNtNtCsaLOjE9VYtxK_3std3sys2fs4unixNtB5_4File6open_c, symObjAddr: 0x2D7B8, symBinAddr: 0x100118B60, symSize: 0x1E4 }
  - { offset: 0x17F5A3, size: 0x8, addend: 0x0, symName: __RNCNvMsi_NtNtNtCsaLOjE9VYtxK_3std3sys2fs4unixNtB7_4File4open0Bd_, symObjAddr: 0x14A68, symBinAddr: 0x10010E2F4, symSize: 0xC }
  - { offset: 0x17F659, size: 0x8, addend: 0x0, symName: __RNvXsc_NtNtNtCsaLOjE9VYtxK_3std3sys2fs4unixNtB5_9DirStreamNtNtNtCs6sq8b9ugfBC_4core3ops4drop4Drop4drop, symObjAddr: 0x49588, symBinAddr: 0x10011F6D0, symSize: 0xB4 }
  - { offset: 0x17F715, size: 0x8, addend: 0x0, symName: __RNvNtNtCsaLOjE9VYtxK_3std3sys2fs8read_dir, symObjAddr: 0x3389C, symBinAddr: 0x100119FA8, symSize: 0x180 }
  - { offset: 0x17F9E8, size: 0x8, addend: 0x0, symName: __RINvNtNtCsaLOjE9VYtxK_3std3sys9backtrace26___rust_end_short_backtraceNCNvNtB6_5alloc8rust_oom0zEB6_, symObjAddr: 0x8F88, symBinAddr: 0x1001341AC, symSize: 0xC }
  - { offset: 0x17FA02, size: 0x8, addend: 0x0, symName: __RINvNtNtCsaLOjE9VYtxK_3std3sys9backtrace26___rust_end_short_backtraceNCNvNtB6_9panicking13panic_handler0zEB6_, symObjAddr: 0x8F94, symBinAddr: 0x1001040CC, symSize: 0xC }
  - { offset: 0x17FA49, size: 0x8, addend: 0x0, symName: __RNCNCNvNtNtCsaLOjE9VYtxK_3std3sys9backtrace10__print_fmts_00B9_, symObjAddr: 0x13D2C, symBinAddr: 0x10010DD88, symSize: 0x244 }
  - { offset: 0x17FC7B, size: 0x8, addend: 0x0, symName: __RNCNvNtNtCsaLOjE9VYtxK_3std3sys9backtrace10__print_fmt0B7_, symObjAddr: 0x1530C, symBinAddr: 0x10010E4CC, symSize: 0x24 }
  - { offset: 0x17FCA5, size: 0x8, addend: 0x0, symName: __RNCNvNtNtCsaLOjE9VYtxK_3std3sys9backtrace10__print_fmts_0B7_, symObjAddr: 0x15330, symBinAddr: 0x10010E4F0, symSize: 0x134 }
  - { offset: 0x17FDA4, size: 0x8, addend: 0x0, symName: __RNvNtNtCsaLOjE9VYtxK_3std3sys9backtrace15output_filename, symObjAddr: 0x33EC8, symBinAddr: 0x10011A128, symSize: 0xEC }
  - { offset: 0x17FF0C, size: 0x8, addend: 0x0, symName: __RNvNtNtCsaLOjE9VYtxK_3std3sys9backtrace4lock, symObjAddr: 0x33FB4, symBinAddr: 0x10011A214, symSize: 0x70 }
  - { offset: 0x18007F, size: 0x8, addend: 0x0, symName: __RNvXNvMNtNtCsaLOjE9VYtxK_3std3sys9backtraceNtB5_13BacktraceLock5printNtB2_16DisplayBacktraceNtNtCs6sq8b9ugfBC_4core3fmt7Display3fmt, symObjAddr: 0x3E0D4, symBinAddr: 0x10011DDF0, symSize: 0x19C }
  - { offset: 0x180434, size: 0x8, addend: 0x0, symName: __RINvNtNtNtCsaLOjE9VYtxK_3std3sys7helpers14small_c_string24run_with_cstr_allocatingNtNtNtB6_2fs4unix4FileEB8_, symObjAddr: 0xBA28, symBinAddr: 0x1001341B8, symSize: 0xD0 }
  - { offset: 0x18066B, size: 0x8, addend: 0x0, symName: __RINvNtNtNtCsaLOjE9VYtxK_3std3sys7helpers14small_c_string24run_with_cstr_allocatingONtNtCs90KNAEDKYN5_4libc4unix3DIREB8_, symObjAddr: 0xBD34, symBinAddr: 0x100134288, symSize: 0xA4 }
  - { offset: 0x1808D0, size: 0x8, addend: 0x0, symName: __RNCNvNtNtNtCsaLOjE9VYtxK_3std3sys3env4unix6getenv0B9_, symObjAddr: 0x156D4, symBinAddr: 0x10010E63C, symSize: 0x130 }
  - { offset: 0x180ACE, size: 0x8, addend: 0x0, symName: __RNvNtNtNtCsaLOjE9VYtxK_3std3sys3env4unix13env_read_lock, symObjAddr: 0x38AB4, symBinAddr: 0x10011D184, symSize: 0x230 }
  - { offset: 0x181219, size: 0x8, addend: 0x0, symName: __RNCNvNtNtNtCsaLOjE9VYtxK_3std3sys11personality3gcc14find_eh_action0B9_, symObjAddr: 0x15464, symBinAddr: 0x10010E624, symSize: 0xC }
  - { offset: 0x18122D, size: 0x8, addend: 0x0, symName: __RNCNvNtNtNtCsaLOjE9VYtxK_3std3sys11personality3gcc14find_eh_actions_0B9_, symObjAddr: 0x15470, symBinAddr: 0x10010E630, symSize: 0xC }
  - { offset: 0x181279, size: 0x8, addend: 0x0, symName: _rust_eh_personality, symObjAddr: 0x4E47C, symBinAddr: 0x1001212C0, symSize: 0x378 }
  - { offset: 0x1816EA, size: 0x8, addend: 0x0, symName: __RNvNtNtNtNtCsaLOjE9VYtxK_3std3sys11personality5dwarf2eh19read_encoded_offset, symObjAddr: 0x39768, symBinAddr: 0x10011D590, symSize: 0x148 }
  - { offset: 0x181A30, size: 0x8, addend: 0x0, symName: __RNvMs5_NtNtNtCsaLOjE9VYtxK_3std4sync6poison5mutexINtB5_5MutexINtNtCs8dnTdrJsiec_5alloc3vec3VechEE4lockBb_, symObjAddr: 0x22520, symBinAddr: 0x100112C84, symSize: 0x78 }
  - { offset: 0x181C6D, size: 0x8, addend: 0x0, symName: __RINvMs5_NtNtCsaLOjE9VYtxK_3std2io5errorNtB6_5Error3newReEBa_, symObjAddr: 0x3A34, symBinAddr: 0x1001016AC, symSize: 0x120 }
  - { offset: 0x1820CA, size: 0x8, addend: 0x0, symName: __RNvXNtNtCsaLOjE9VYtxK_3std2io5errorNtB2_5ErrorNtNtCs6sq8b9ugfBC_4core3fmt5Debug3fmt, symObjAddr: 0x3CECC, symBinAddr: 0x10011DCC4, symSize: 0x4 }
  - { offset: 0x18211B, size: 0x8, addend: 0x0, symName: __RNvXs6_NtNtCsaLOjE9VYtxK_3std2io5errorNtNtB5_14repr_bitpacked4ReprNtNtCs6sq8b9ugfBC_4core3fmt5Debug3fmt, symObjAddr: 0x443E0, symBinAddr: 0x10011E854, symSize: 0x28C }
  - { offset: 0x1823DF, size: 0x8, addend: 0x0, symName: __RNvXs7_NtNtCsaLOjE9VYtxK_3std2io5errorNtB5_5ErrorNtNtCs6sq8b9ugfBC_4core3fmt7Display3fmt, symObjAddr: 0x455BC, symBinAddr: 0x10011EAE0, symSize: 0x1B0 }
  - { offset: 0x18268C, size: 0x8, addend: 0x0, symName: __RNvXse_NtNtCsaLOjE9VYtxK_3std2io5errorNtB5_9ErrorKindNtNtCs6sq8b9ugfBC_4core3fmt5Debug3fmt, symObjAddr: 0x49D54, symBinAddr: 0x10011F784, symSize: 0x28 }
  - { offset: 0x1826EC, size: 0x8, addend: 0x0, symName: __RNvNtNtCsaLOjE9VYtxK_3std2io5stdio22try_set_output_capture, symObjAddr: 0x31F08, symBinAddr: 0x100119EBC, symSize: 0xEC }
  - { offset: 0x1829B3, size: 0x8, addend: 0x0, symName: __RNvXs9_NtNtCsaLOjE9VYtxK_3std2io5implsINtNtCs8dnTdrJsiec_5alloc3vec3VechENtB7_5Write14write_vectoredB9_, symObjAddr: 0x45EB8, symBinAddr: 0x10011EC90, symSize: 0x19C }
  - { offset: 0x182C22, size: 0x8, addend: 0x0, symName: __RNvXs9_NtNtCsaLOjE9VYtxK_3std2io5implsINtNtCs8dnTdrJsiec_5alloc3vec3VechENtB7_5Write17is_write_vectoredB9_, symObjAddr: 0x46054, symBinAddr: 0x10011EE2C, symSize: 0x8 }
  - { offset: 0x182C4B, size: 0x8, addend: 0x0, symName: __RNvXs9_NtNtCsaLOjE9VYtxK_3std2io5implsINtNtCs8dnTdrJsiec_5alloc3vec3VechENtB7_5Write18write_all_vectoredB9_, symObjAddr: 0x4605C, symBinAddr: 0x10011EE34, symSize: 0x18C }
  - { offset: 0x182C6A, size: 0x8, addend: 0x0, symName: __RNvXs9_NtNtCsaLOjE9VYtxK_3std2io5implsINtNtCs8dnTdrJsiec_5alloc3vec3VechENtB7_5Write18write_all_vectoredB9_, symObjAddr: 0x4605C, symBinAddr: 0x10011EE34, symSize: 0x18C }
  - { offset: 0x182C80, size: 0x8, addend: 0x0, symName: __RNvXs9_NtNtCsaLOjE9VYtxK_3std2io5implsINtNtCs8dnTdrJsiec_5alloc3vec3VechENtB7_5Write18write_all_vectoredB9_, symObjAddr: 0x4605C, symBinAddr: 0x10011EE34, symSize: 0x18C }
  - { offset: 0x182C96, size: 0x8, addend: 0x0, symName: __RNvXs9_NtNtCsaLOjE9VYtxK_3std2io5implsINtNtCs8dnTdrJsiec_5alloc3vec3VechENtB7_5Write18write_all_vectoredB9_, symObjAddr: 0x4605C, symBinAddr: 0x10011EE34, symSize: 0x18C }
  - { offset: 0x182CAC, size: 0x8, addend: 0x0, symName: __RNvXs9_NtNtCsaLOjE9VYtxK_3std2io5implsINtNtCs8dnTdrJsiec_5alloc3vec3VechENtB7_5Write18write_all_vectoredB9_, symObjAddr: 0x4605C, symBinAddr: 0x10011EE34, symSize: 0x18C }
  - { offset: 0x182CC2, size: 0x8, addend: 0x0, symName: __RNvXs9_NtNtCsaLOjE9VYtxK_3std2io5implsINtNtCs8dnTdrJsiec_5alloc3vec3VechENtB7_5Write18write_all_vectoredB9_, symObjAddr: 0x4605C, symBinAddr: 0x10011EE34, symSize: 0x18C }
  - { offset: 0x182F10, size: 0x8, addend: 0x0, symName: __RNvXs9_NtNtCsaLOjE9VYtxK_3std2io5implsINtNtCs8dnTdrJsiec_5alloc3vec3VechENtB7_5Write5flushB9_, symObjAddr: 0x461E8, symBinAddr: 0x10011EFC0, symSize: 0x8 }
  - { offset: 0x182F2B, size: 0x8, addend: 0x0, symName: __RNvXs9_NtNtCsaLOjE9VYtxK_3std2io5implsINtNtCs8dnTdrJsiec_5alloc3vec3VechENtB7_5Write5writeB9_, symObjAddr: 0x461F0, symBinAddr: 0x10011EFC8, symSize: 0x88 }
  - { offset: 0x183080, size: 0x8, addend: 0x0, symName: __RNvXs9_NtNtCsaLOjE9VYtxK_3std2io5implsINtNtCs8dnTdrJsiec_5alloc3vec3VechENtB7_5Write9write_allB9_, symObjAddr: 0x46278, symBinAddr: 0x10011F050, symSize: 0x84 }
  - { offset: 0x1831E4, size: 0x8, addend: 0x0, symName: __RINvNvNtCsaLOjE9VYtxK_3std2io19default_read_to_end16small_probe_readNtNtB6_2fs4FileEB6_, symObjAddr: 0x12F28, symBinAddr: 0x10010D974, symSize: 0x12C }
  - { offset: 0x18342E, size: 0x8, addend: 0x0, symName: __RINvNtCsaLOjE9VYtxK_3std2io19default_read_to_endNtNtB4_2fs4FileEB4_, symObjAddr: 0x88D0, symBinAddr: 0x100103EA8, symSize: 0x224 }
  - { offset: 0x1838EB, size: 0x8, addend: 0x0, symName: __RNvYINtNtCs8dnTdrJsiec_5alloc3vec3VechENtNtCsaLOjE9VYtxK_3std2io5Write9write_fmtBF_, symObjAddr: 0x4D188, symBinAddr: 0x100120654, symSize: 0x9C }
  - { offset: 0x18393A, size: 0x8, addend: 0x0, symName: __RNvYNtNtNtNtCsaLOjE9VYtxK_3std3sys5stdio4unix6StderrNtNtBa_2io5Write18write_all_vectoredBa_, symObjAddr: 0x4DD84, symBinAddr: 0x100120EDC, symSize: 0x1B4 }
  - { offset: 0x183BB3, size: 0x8, addend: 0x0, symName: __RNvYNtNtNtNtCsaLOjE9VYtxK_3std3sys5stdio4unix6StderrNtNtBa_2io5Write9write_allBa_, symObjAddr: 0x4DF38, symBinAddr: 0x100121090, symSize: 0xE0 }
  - { offset: 0x183CAD, size: 0x8, addend: 0x0, symName: __RNvYNtNtNtNtCsaLOjE9VYtxK_3std3sys5stdio4unix6StderrNtNtBa_2io5Write9write_fmtBa_, symObjAddr: 0x4E018, symBinAddr: 0x100121170, symSize: 0x9C }
  - { offset: 0x183D3A, size: 0x8, addend: 0x0, symName: __RNvXNvNtCsaLOjE9VYtxK_3std2io17default_write_fmtINtB2_7AdapterINtNtB4_6cursor6CursorQShEENtNtCs6sq8b9ugfBC_4core3fmt5Write9write_strB6_, symObjAddr: 0x3E29C, symBinAddr: 0x10011DF8C, symSize: 0xA0 }
  - { offset: 0x183E6A, size: 0x8, addend: 0x0, symName: __RNvXNvNtCsaLOjE9VYtxK_3std2io17default_write_fmtINtB2_7AdapterINtNtCs8dnTdrJsiec_5alloc3vec3VechEENtNtCs6sq8b9ugfBC_4core3fmt5Write9write_strB6_, symObjAddr: 0x3E33C, symBinAddr: 0x10011E02C, symSize: 0x84 }
  - { offset: 0x183FC7, size: 0x8, addend: 0x0, symName: __RNvXNvNtCsaLOjE9VYtxK_3std2io17default_write_fmtINtB2_7AdapterNtNtNtNtB6_3sys5stdio4unix6StderrENtNtCs6sq8b9ugfBC_4core3fmt5Write9write_strB6_, symObjAddr: 0x3E4A4, symBinAddr: 0x10011E0B0, symSize: 0x100 }
  - { offset: 0x1841C0, size: 0x8, addend: 0x0, symName: __RNvMs16_NtCsaLOjE9VYtxK_3std4pathNtB6_4Path13__strip_prefix, symObjAddr: 0x1C7B4, symBinAddr: 0x10010F624, symSize: 0x1FC }
  - { offset: 0x1842F9, size: 0x8, addend: 0x0, symName: __RNvMs16_NtCsaLOjE9VYtxK_3std4pathNtB6_4Path5__join, symObjAddr: 0x1D094, symBinAddr: 0x10010F820, symSize: 0x178 }
  - { offset: 0x184940, size: 0x8, addend: 0x0, symName: __RNvMs8_NtCsaLOjE9VYtxK_3std4pathNtB5_10Components25parse_next_component_back, symObjAddr: 0x22C6C, symBinAddr: 0x100113130, symSize: 0x160 }
  - { offset: 0x184AA8, size: 0x8, addend: 0x0, symName: __RNvMs8_NtCsaLOjE9VYtxK_3std4pathNtB5_10Components7as_path, symObjAddr: 0x22DCC, symBinAddr: 0x100113290, symSize: 0x220 }
  - { offset: 0x184CA1, size: 0x8, addend: 0x0, symName: __RNvXs1Y_NtCsaLOjE9VYtxK_3std4pathNtB6_9ComponentNtNtCs6sq8b9ugfBC_4core3cmp9PartialEq2eq, symObjAddr: 0x3F910, symBinAddr: 0x10011E3B8, symSize: 0x104 }
  - { offset: 0x184D6B, size: 0x8, addend: 0x0, symName: __RNvXsi_NtCsaLOjE9VYtxK_3std4pathNtB5_10ComponentsNtNtNtNtCs6sq8b9ugfBC_4core4iter6traits8iterator8Iterator4next, symObjAddr: 0x4AB0C, symBinAddr: 0x10011F7AC, symSize: 0x304 }
  - { offset: 0x184E79, size: 0x8, addend: 0x0, symName: __RNvXsj_NtCsaLOjE9VYtxK_3std4pathNtB5_10ComponentsNtNtNtNtCs6sq8b9ugfBC_4core4iter6traits12double_ended19DoubleEndedIterator9next_back, symObjAddr: 0x4AEE4, symBinAddr: 0x10011FAB0, symSize: 0x3DC }
  - { offset: 0x185142, size: 0x8, addend: 0x0, symName: __RNvXsQ_NtNtCsaLOjE9VYtxK_3std3ffi6os_strNtB5_7DisplayNtNtCs6sq8b9ugfBC_4core3fmt7Display3fmt, symObjAddr: 0x467A8, symBinAddr: 0x10011F2E0, symSize: 0x10 }
  - { offset: 0x185262, size: 0x8, addend: 0x0, symName: __RNvMs_NtNtNtNtCsaLOjE9VYtxK_3std12backtrace_rs9symbolize5gimli5machoNtB4_6Object5parse, symObjAddr: 0x280E4, symBinAddr: 0x10011647C, symSize: 0xC98 }
  - { offset: 0x1872CF, size: 0x8, addend: 0x0, symName: __RNvMs_NtNtNtNtCsaLOjE9VYtxK_3std12backtrace_rs9symbolize5gimli5machoNtB4_6Object7section, symObjAddr: 0x28D7C, symBinAddr: 0x100117114, symSize: 0x150 }
  - { offset: 0x187740, size: 0x8, addend: 0x0, symName: __RNvNtNtNtNtCsaLOjE9VYtxK_3std12backtrace_rs9symbolize5gimli5macho11find_header, symObjAddr: 0x39458, symBinAddr: 0x10011D3B4, symSize: 0x1DC }
  - { offset: 0x18775E, size: 0x8, addend: 0x0, symName: __RNvNtNtNtNtCsaLOjE9VYtxK_3std12backtrace_rs9symbolize5gimli5macho11find_header, symObjAddr: 0x39458, symBinAddr: 0x10011D3B4, symSize: 0x1DC }
  - { offset: 0x187773, size: 0x8, addend: 0x0, symName: __RNvNtNtNtNtCsaLOjE9VYtxK_3std12backtrace_rs9symbolize5gimli5macho11find_header, symObjAddr: 0x39458, symBinAddr: 0x10011D3B4, symSize: 0x1DC }
  - { offset: 0x187788, size: 0x8, addend: 0x0, symName: __RNvNtNtNtNtCsaLOjE9VYtxK_3std12backtrace_rs9symbolize5gimli5macho11find_header, symObjAddr: 0x39458, symBinAddr: 0x10011D3B4, symSize: 0x1DC }
  - { offset: 0x18779D, size: 0x8, addend: 0x0, symName: __RNvNtNtNtNtCsaLOjE9VYtxK_3std12backtrace_rs9symbolize5gimli5macho11find_header, symObjAddr: 0x39458, symBinAddr: 0x10011D3B4, symSize: 0x1DC }
  - { offset: 0x1877B3, size: 0x8, addend: 0x0, symName: __RNvNtNtNtNtCsaLOjE9VYtxK_3std12backtrace_rs9symbolize5gimli5macho11find_header, symObjAddr: 0x39458, symBinAddr: 0x10011D3B4, symSize: 0x1DC }
  - { offset: 0x1877C9, size: 0x8, addend: 0x0, symName: __RNvNtNtNtNtCsaLOjE9VYtxK_3std12backtrace_rs9symbolize5gimli5macho11find_header, symObjAddr: 0x39458, symBinAddr: 0x10011D3B4, symSize: 0x1DC }
  - { offset: 0x187E01, size: 0x8, addend: 0x0, symName: __RNvMs_NtNtNtCsaLOjE9VYtxK_3std12backtrace_rs9symbolize5gimliNtB4_7Context11find_frames, symObjAddr: 0x25674, symBinAddr: 0x10011425C, symSize: 0x398 }
  - { offset: 0x1882C6, size: 0x8, addend: 0x0, symName: __RNvMs_NtNtNtCsaLOjE9VYtxK_3std12backtrace_rs9symbolize5gimliNtB4_7Context3new, symObjAddr: 0x25A0C, symBinAddr: 0x1001145F4, symSize: 0x1E88 }
  - { offset: 0x18C9C4, size: 0x8, addend: 0x0, symName: __RNvNtNtNtCsaLOjE9VYtxK_3std12backtrace_rs9symbolize5gimli4mmap, symObjAddr: 0x34B98, symBinAddr: 0x10011A3F8, symSize: 0x1E0 }
  - { offset: 0x18CFC0, size: 0x8, addend: 0x0, symName: __RNvNtNtNtCsaLOjE9VYtxK_3std12backtrace_rs9symbolize5gimli7resolve, symObjAddr: 0x34D78, symBinAddr: 0x10011A5D8, symSize: 0x24E4 }
  - { offset: 0x192991, size: 0x8, addend: 0x0, symName: __RNvMs_NtNtCsaLOjE9VYtxK_3std12backtrace_rs9symbolizeNtB4_6Symbol4name, symObjAddr: 0x25084, symBinAddr: 0x100113FFC, symSize: 0xD4 }
  - { offset: 0x192B0A, size: 0x8, addend: 0x0, symName: __RNvXs2_NtNtCsaLOjE9VYtxK_3std12backtrace_rs9symbolizeNtB5_10SymbolNameNtNtCs6sq8b9ugfBC_4core3fmt7Display3fmt, symObjAddr: 0x412D0, symBinAddr: 0x10011E688, symSize: 0x104 }
  - { offset: 0x192BE6, size: 0x8, addend: 0x0, symName: __RNvNvNtNtNtCsaLOjE9VYtxK_3std12backtrace_rs9backtrace9libunwind5trace8trace_fn, symObjAddr: 0x3C75C, symBinAddr: 0x10011DB64, symSize: 0x48 }
  - { offset: 0x192CCA, size: 0x8, addend: 0x0, symName: __RNvMs_NtNtCsaLOjE9VYtxK_3std12backtrace_rs5printNtB4_17BacktraceFrameFmt21print_raw_with_column, symObjAddr: 0x24CD0, symBinAddr: 0x100113C80, symSize: 0x37C }
  - { offset: 0x193000, size: 0x8, addend: 0x0, symName: __RNvNtNtCsaLOjE9VYtxK_3std9panicking11panic_count17is_zero_slow_path, symObjAddr: 0x34A80, symBinAddr: 0x100134D84, symSize: 0x2C }
  - { offset: 0x19308C, size: 0x8, addend: 0x0, symName: __RNvNtNtCsaLOjE9VYtxK_3std9panicking11panic_count8increase, symObjAddr: 0x34B10, symBinAddr: 0x10011A394, symSize: 0x64 }
  - { offset: 0x1930A4, size: 0x8, addend: 0x0, symName: __RNvNtNtCsaLOjE9VYtxK_3std9panicking11panic_count8increase, symObjAddr: 0x34B10, symBinAddr: 0x10011A394, symSize: 0x64 }
  - { offset: 0x1930BA, size: 0x8, addend: 0x0, symName: __RNvNtNtCsaLOjE9VYtxK_3std9panicking11panic_count8increase, symObjAddr: 0x34B10, symBinAddr: 0x10011A394, symSize: 0x64 }
  - { offset: 0x1931C6, size: 0x8, addend: 0x0, symName: __RNCNvNtCsaLOjE9VYtxK_3std9panicking12default_hook0B5_, symObjAddr: 0x14AEC, symBinAddr: 0x10010E300, symSize: 0x134 }
  - { offset: 0x193309, size: 0x8, addend: 0x0, symName: __RNCNvNtCsaLOjE9VYtxK_3std9panicking13panic_handler0B5_, symObjAddr: 0x14C20, symBinAddr: 0x10010E434, symSize: 0x98 }
  - { offset: 0x193492, size: 0x8, addend: 0x0, symName: __RNvXs0_NvNtCsaLOjE9VYtxK_3std9panicking13panic_handlerNtB5_19FormatStringPayloadNtNtCs6sq8b9ugfBC_4core3fmt7Display3fmt, symObjAddr: 0x3F66C, symBinAddr: 0x10011E1B0, symSize: 0x34 }
  - { offset: 0x193598, size: 0x8, addend: 0x0, symName: __RNvXs1_NvNtCsaLOjE9VYtxK_3std9panicking13panic_handlerNtB5_16StaticStrPayloadNtNtCs6sq8b9ugfBC_4core5panic12PanicPayload3get, symObjAddr: 0x40254, symBinAddr: 0x10011E4BC, symSize: 0xC }
  - { offset: 0x1935B3, size: 0x8, addend: 0x0, symName: __RNvXs1_NvNtCsaLOjE9VYtxK_3std9panicking13panic_handlerNtB5_16StaticStrPayloadNtNtCs6sq8b9ugfBC_4core5panic12PanicPayload6as_str, symObjAddr: 0x40260, symBinAddr: 0x10011E4C8, symSize: 0xC }
  - { offset: 0x1935CE, size: 0x8, addend: 0x0, symName: __RNvXs1_NvNtCsaLOjE9VYtxK_3std9panicking13panic_handlerNtB5_16StaticStrPayloadNtNtCs6sq8b9ugfBC_4core5panic12PanicPayload8take_box, symObjAddr: 0x4026C, symBinAddr: 0x10011E4D4, symSize: 0x48 }
  - { offset: 0x193668, size: 0x8, addend: 0x0, symName: __RNvXs2_NvNtCsaLOjE9VYtxK_3std9panicking13panic_handlerNtB5_16StaticStrPayloadNtNtCs6sq8b9ugfBC_4core3fmt7Display3fmt, symObjAddr: 0x417D8, symBinAddr: 0x10011E78C, symSize: 0x10 }
  - { offset: 0x1936BB, size: 0x8, addend: 0x0, symName: __RNvXs_NvNtCsaLOjE9VYtxK_3std9panicking13panic_handlerNtB4_19FormatStringPayloadNtNtCs6sq8b9ugfBC_4core5panic12PanicPayload3get, symObjAddr: 0x48A5C, symBinAddr: 0x10011F4F4, symSize: 0xA0 }
  - { offset: 0x19383E, size: 0x8, addend: 0x0, symName: __RNvXs_NvNtCsaLOjE9VYtxK_3std9panicking13panic_handlerNtB4_19FormatStringPayloadNtNtCs6sq8b9ugfBC_4core5panic12PanicPayload8take_box, symObjAddr: 0x48AFC, symBinAddr: 0x10011F594, symSize: 0x108 }
  - { offset: 0x193B60, size: 0x8, addend: 0x0, symName: __RNvCsGIExRX8pES_7___rustc10rust_panic, symObjAddr: 0x15EFC, symBinAddr: 0x1001345A0, symSize: 0x48 }
  - { offset: 0x193B7B, size: 0x8, addend: 0x0, symName: __RNvCsGIExRX8pES_7___rustc17___rust_drop_panic, symObjAddr: 0x16070, symBinAddr: 0x10010E95C, symSize: 0xD4 }
  - { offset: 0x193CBD, size: 0x8, addend: 0x0, symName: __RNvCsGIExRX8pES_7___rustc17rust_begin_unwind, symObjAddr: 0x16144, symBinAddr: 0x10010EA30, symSize: 0x20 }
  - { offset: 0x193D04, size: 0x8, addend: 0x0, symName: __RNvNtCsaLOjE9VYtxK_3std9panicking12default_hook, symObjAddr: 0x31684, symBinAddr: 0x100119930, symSize: 0x13C }
  - { offset: 0x193E9B, size: 0x8, addend: 0x0, symName: __RNvNtCsaLOjE9VYtxK_3std9panicking14payload_as_str, symObjAddr: 0x3187C, symBinAddr: 0x100119A6C, symSize: 0xC8 }
  - { offset: 0x193FF2, size: 0x8, addend: 0x0, symName: __RNvNtCsaLOjE9VYtxK_3std9panicking15panic_with_hook, symObjAddr: 0x31944, symBinAddr: 0x100119B34, symSize: 0x388 }
  - { offset: 0x1948A5, size: 0x8, addend: 0x0, symName: __RNvNvNtCsaLOjE9VYtxK_3std2fs4read5inner, symObjAddr: 0x3C2E0, symBinAddr: 0x10011D924, symSize: 0x240 }
  - { offset: 0x194EA3, size: 0x8, addend: 0x0, symName: __RNvXsB_NtCsaLOjE9VYtxK_3std2fsNtB5_7ReadDirNtNtNtNtCs6sq8b9ugfBC_4core4iter6traits8iterator8Iterator4next, symObjAddr: 0x46430, symBinAddr: 0x10011F0D4, symSize: 0x18C }
  - { offset: 0x1951A7, size: 0x8, addend: 0x0, symName: __RNCNvNtCsaLOjE9VYtxK_3std5alloc8rust_oom0B5_, symObjAddr: 0x14AB8, symBinAddr: 0x1001343B8, symSize: 0x34 }
  - { offset: 0x1951F7, size: 0x8, addend: 0x0, symName: __RNvCsGIExRX8pES_7___rustc11___rdl_alloc, symObjAddr: 0x15F44, symBinAddr: 0x10010E83C, symSize: 0x6C }
  - { offset: 0x19527A, size: 0x8, addend: 0x0, symName: __RNvCsGIExRX8pES_7___rustc13___rdl_dealloc, symObjAddr: 0x15FBC, symBinAddr: 0x10010E8A8, symSize: 0x4 }
  - { offset: 0x195299, size: 0x8, addend: 0x0, symName: __RNvCsGIExRX8pES_7___rustc13___rdl_dealloc, symObjAddr: 0x15FBC, symBinAddr: 0x10010E8A8, symSize: 0x4 }
  - { offset: 0x1952AC, size: 0x8, addend: 0x0, symName: __RNvCsGIExRX8pES_7___rustc13___rdl_realloc, symObjAddr: 0x15FC0, symBinAddr: 0x10010E8AC, symSize: 0xB0 }
  - { offset: 0x19538A, size: 0x8, addend: 0x0, symName: __RNvCsGIExRX8pES_7___rustc18___rdl_alloc_zeroed, symObjAddr: 0x16164, symBinAddr: 0x10010EA50, symSize: 0x90 }
  - { offset: 0x195437, size: 0x8, addend: 0x0, symName: __RNvCsGIExRX8pES_7___rustc26___rust_alloc_error_handler, symObjAddr: 0x162C8, symBinAddr: 0x1001345E8, symSize: 0x18 }
  - { offset: 0x1954A2, size: 0x8, addend: 0x0, symName: __RNvNtCsaLOjE9VYtxK_3std5alloc24default_alloc_error_hook, symObjAddr: 0x3137C, symBinAddr: 0x100119688, symSize: 0x108 }
  - { offset: 0x195517, size: 0x8, addend: 0x0, symName: __RNvNtCsaLOjE9VYtxK_3std5alloc8rust_oom, symObjAddr: 0x31484, symBinAddr: 0x100134C24, symSize: 0x18 }
  - { offset: 0x19554E, size: 0x8, addend: 0x0, symName: __RNvNtCsaLOjE9VYtxK_3std5panic19get_backtrace_style, symObjAddr: 0x314A8, symBinAddr: 0x100119790, symSize: 0x1A0 }
  - { offset: 0x19556D, size: 0x8, addend: 0x0, symName: __RNvNtCsaLOjE9VYtxK_3std5panic19get_backtrace_style, symObjAddr: 0x314A8, symBinAddr: 0x100119790, symSize: 0x1A0 }
  - { offset: 0x195583, size: 0x8, addend: 0x0, symName: __RNvNtCsaLOjE9VYtxK_3std5panic19get_backtrace_style, symObjAddr: 0x314A8, symBinAddr: 0x100119790, symSize: 0x1A0 }
  - { offset: 0x195B21, size: 0x8, addend: 0x0, symName: __RNvNtCsaLOjE9VYtxK_3std3env11current_dir, symObjAddr: 0x302C0, symBinAddr: 0x1001194F0, symSize: 0x198 }
  - { offset: 0x195FE2, size: 0x8, addend: 0x0, symName: __RNvNtCsaLOjE9VYtxK_3std7process5abort, symObjAddr: 0x31678, symBinAddr: 0x100134C3C, symSize: 0xC }
  - { offset: 0x196168, size: 0x8, addend: 0x0, symName: __RINvMs0_NtNtCsgmVNXhSCXCV_6object4read7archiveNtB6_13ArchiveMember5parseRShECsaLOjE9VYtxK_3std, symObjAddr: 0x2EFC, symBinAddr: 0x100101100, symSize: 0x5AC }
  - { offset: 0x197A27, size: 0x8, addend: 0x0, symName: _OUTLINED_FUNCTION_0, symObjAddr: 0x4E7F4, symBinAddr: 0x100121638, symSize: 0xC }
  - { offset: 0x197A3F, size: 0x8, addend: 0x0, symName: _OUTLINED_FUNCTION_1, symObjAddr: 0x4E800, symBinAddr: 0x100121644, symSize: 0x8 }
  - { offset: 0x197A57, size: 0x8, addend: 0x0, symName: _OUTLINED_FUNCTION_2, symObjAddr: 0x4E808, symBinAddr: 0x10012164C, symSize: 0xC }
  - { offset: 0x197A6F, size: 0x8, addend: 0x0, symName: _OUTLINED_FUNCTION_3, symObjAddr: 0x4E814, symBinAddr: 0x100121658, symSize: 0xC }
  - { offset: 0x197A87, size: 0x8, addend: 0x0, symName: _OUTLINED_FUNCTION_4, symObjAddr: 0x4E820, symBinAddr: 0x100121664, symSize: 0x10 }
  - { offset: 0x197A9F, size: 0x8, addend: 0x0, symName: _OUTLINED_FUNCTION_5, symObjAddr: 0x4E830, symBinAddr: 0x100121674, symSize: 0xC }
  - { offset: 0x197AB7, size: 0x8, addend: 0x0, symName: _OUTLINED_FUNCTION_6, symObjAddr: 0x4E83C, symBinAddr: 0x100121680, symSize: 0x10 }
  - { offset: 0x197ACF, size: 0x8, addend: 0x0, symName: _OUTLINED_FUNCTION_7, symObjAddr: 0x4E84C, symBinAddr: 0x100121690, symSize: 0xC }
  - { offset: 0x197AE7, size: 0x8, addend: 0x0, symName: _OUTLINED_FUNCTION_8, symObjAddr: 0x4E858, symBinAddr: 0x10012169C, symSize: 0xC }
  - { offset: 0x197AFF, size: 0x8, addend: 0x0, symName: _OUTLINED_FUNCTION_9, symObjAddr: 0x4E864, symBinAddr: 0x1001216A8, symSize: 0xC }
  - { offset: 0x197B17, size: 0x8, addend: 0x0, symName: _OUTLINED_FUNCTION_10, symObjAddr: 0x4E870, symBinAddr: 0x1001216B4, symSize: 0x8 }
  - { offset: 0x197B2F, size: 0x8, addend: 0x0, symName: _OUTLINED_FUNCTION_11, symObjAddr: 0x4E878, symBinAddr: 0x1001216BC, symSize: 0x8 }
  - { offset: 0x197B47, size: 0x8, addend: 0x0, symName: _OUTLINED_FUNCTION_12, symObjAddr: 0x4E880, symBinAddr: 0x1001216C4, symSize: 0x28 }
  - { offset: 0x197B5F, size: 0x8, addend: 0x0, symName: _OUTLINED_FUNCTION_13, symObjAddr: 0x4E8A8, symBinAddr: 0x1001216EC, symSize: 0x14 }
  - { offset: 0x197B77, size: 0x8, addend: 0x0, symName: _OUTLINED_FUNCTION_14, symObjAddr: 0x4E8BC, symBinAddr: 0x100121700, symSize: 0x8 }
  - { offset: 0x197B8F, size: 0x8, addend: 0x0, symName: _OUTLINED_FUNCTION_15, symObjAddr: 0x4E8C4, symBinAddr: 0x100121708, symSize: 0xC }
  - { offset: 0x197BA7, size: 0x8, addend: 0x0, symName: _OUTLINED_FUNCTION_16, symObjAddr: 0x4E8D0, symBinAddr: 0x100121714, symSize: 0x10 }
  - { offset: 0x197BBF, size: 0x8, addend: 0x0, symName: _OUTLINED_FUNCTION_17, symObjAddr: 0x4E8E0, symBinAddr: 0x100121724, symSize: 0x8 }
  - { offset: 0x197BD7, size: 0x8, addend: 0x0, symName: _OUTLINED_FUNCTION_18, symObjAddr: 0x4E8E8, symBinAddr: 0x10012172C, symSize: 0x8 }
  - { offset: 0x197BEF, size: 0x8, addend: 0x0, symName: _OUTLINED_FUNCTION_19, symObjAddr: 0x4E8F0, symBinAddr: 0x100121734, symSize: 0x8 }
  - { offset: 0x197C07, size: 0x8, addend: 0x0, symName: _OUTLINED_FUNCTION_20, symObjAddr: 0x4E8F8, symBinAddr: 0x10012173C, symSize: 0x10 }
  - { offset: 0x197C1F, size: 0x8, addend: 0x0, symName: _OUTLINED_FUNCTION_21, symObjAddr: 0x4E908, symBinAddr: 0x10012174C, symSize: 0x18 }
  - { offset: 0x197C37, size: 0x8, addend: 0x0, symName: _OUTLINED_FUNCTION_22, symObjAddr: 0x4E920, symBinAddr: 0x100121764, symSize: 0x18 }
  - { offset: 0x197C4F, size: 0x8, addend: 0x0, symName: _OUTLINED_FUNCTION_23, symObjAddr: 0x4E938, symBinAddr: 0x10012177C, symSize: 0x8 }
  - { offset: 0x197C67, size: 0x8, addend: 0x0, symName: _OUTLINED_FUNCTION_24, symObjAddr: 0x4E940, symBinAddr: 0x100121784, symSize: 0xC }
  - { offset: 0x197C7F, size: 0x8, addend: 0x0, symName: _OUTLINED_FUNCTION_25, symObjAddr: 0x4E94C, symBinAddr: 0x100121790, symSize: 0x8 }
  - { offset: 0x197C97, size: 0x8, addend: 0x0, symName: _OUTLINED_FUNCTION_26, symObjAddr: 0x4E954, symBinAddr: 0x100121798, symSize: 0x8 }
  - { offset: 0x197CAF, size: 0x8, addend: 0x0, symName: _OUTLINED_FUNCTION_27, symObjAddr: 0x4E95C, symBinAddr: 0x1001217A0, symSize: 0xC }
  - { offset: 0x197CC7, size: 0x8, addend: 0x0, symName: _OUTLINED_FUNCTION_28, symObjAddr: 0x4E968, symBinAddr: 0x1001217AC, symSize: 0x8 }
  - { offset: 0x197CDF, size: 0x8, addend: 0x0, symName: _OUTLINED_FUNCTION_29, symObjAddr: 0x4E970, symBinAddr: 0x1001217B4, symSize: 0xC }
  - { offset: 0x197CF7, size: 0x8, addend: 0x0, symName: _OUTLINED_FUNCTION_31, symObjAddr: 0x4E984, symBinAddr: 0x1001217C0, symSize: 0xC }
  - { offset: 0x197D0F, size: 0x8, addend: 0x0, symName: _OUTLINED_FUNCTION_32, symObjAddr: 0x4E990, symBinAddr: 0x1001217CC, symSize: 0xC }
  - { offset: 0x197D27, size: 0x8, addend: 0x0, symName: _OUTLINED_FUNCTION_33, symObjAddr: 0x4E99C, symBinAddr: 0x1001217D8, symSize: 0xC }
  - { offset: 0x197D3F, size: 0x8, addend: 0x0, symName: _OUTLINED_FUNCTION_34, symObjAddr: 0x4E9A8, symBinAddr: 0x1001217E4, symSize: 0x10 }
  - { offset: 0x197D57, size: 0x8, addend: 0x0, symName: _OUTLINED_FUNCTION_35, symObjAddr: 0x4E9B8, symBinAddr: 0x1001217F4, symSize: 0xC }
  - { offset: 0x197D6F, size: 0x8, addend: 0x0, symName: _OUTLINED_FUNCTION_36, symObjAddr: 0x4E9C4, symBinAddr: 0x100121800, symSize: 0x14 }
  - { offset: 0x197D87, size: 0x8, addend: 0x0, symName: _OUTLINED_FUNCTION_37, symObjAddr: 0x4E9D8, symBinAddr: 0x100121814, symSize: 0x14 }
  - { offset: 0x197D9F, size: 0x8, addend: 0x0, symName: _OUTLINED_FUNCTION_38, symObjAddr: 0x4E9EC, symBinAddr: 0x100121828, symSize: 0x14 }
  - { offset: 0x197DB7, size: 0x8, addend: 0x0, symName: _OUTLINED_FUNCTION_39, symObjAddr: 0x4EA00, symBinAddr: 0x10012183C, symSize: 0x14 }
  - { offset: 0x197DCF, size: 0x8, addend: 0x0, symName: _OUTLINED_FUNCTION_40, symObjAddr: 0x4EA14, symBinAddr: 0x100121850, symSize: 0x14 }
  - { offset: 0x197DE7, size: 0x8, addend: 0x0, symName: _OUTLINED_FUNCTION_41, symObjAddr: 0x4EA28, symBinAddr: 0x100121864, symSize: 0x14 }
  - { offset: 0x197DFF, size: 0x8, addend: 0x0, symName: _OUTLINED_FUNCTION_42, symObjAddr: 0x4EA3C, symBinAddr: 0x100121878, symSize: 0xC }
  - { offset: 0x197E17, size: 0x8, addend: 0x0, symName: _OUTLINED_FUNCTION_43, symObjAddr: 0x4EA48, symBinAddr: 0x100121884, symSize: 0xC }
  - { offset: 0x197E2F, size: 0x8, addend: 0x0, symName: _OUTLINED_FUNCTION_44, symObjAddr: 0x4EA54, symBinAddr: 0x100121890, symSize: 0xC }
  - { offset: 0x197E65, size: 0x8, addend: 0x0, symName: __RINvNtCs6sq8b9ugfBC_4core3ptr13drop_in_placeINtNtCs8dnTdrJsiec_5alloc5boxed3BoxNtNtCs7JivflSCvRx_12panic_unwind3imp9ExceptionEEB1j_, symObjAddr: 0x0, symBinAddr: 0x10012189C, symSize: 0x8C }
  - { offset: 0x197E9B, size: 0x8, addend: 0x0, symName: __RINvNtCs6sq8b9ugfBC_4core3ptr13drop_in_placeINtNtCs8dnTdrJsiec_5alloc5boxed3BoxNtNtCs7JivflSCvRx_12panic_unwind3imp9ExceptionEEB1j_, symObjAddr: 0x0, symBinAddr: 0x10012189C, symSize: 0x8C }
  - { offset: 0x198137, size: 0x8, addend: 0x0, symName: __RINvNtCs6sq8b9ugfBC_4core3ptr13drop_in_placeNtNtCs7JivflSCvRx_12panic_unwind3imp9ExceptionEBK_, symObjAddr: 0x8C, symBinAddr: 0x100121928, symSize: 0x78 }
  - { offset: 0x198430, size: 0x8, addend: 0x0, symName: __RNvNvNtCs7JivflSCvRx_12panic_unwind3imp5panic17exception_cleanup, symObjAddr: 0x20C, symBinAddr: 0x100121A40, symSize: 0x18 }
  - { offset: 0x19844C, size: 0x8, addend: 0x0, symName: __RNvCsGIExRX8pES_7___rustc18___rust_start_panic, symObjAddr: 0x104, symBinAddr: 0x1001219A0, symSize: 0xA0 }
  - { offset: 0x198512, size: 0x8, addend: 0x0, symName: __RINvNtCs6sq8b9ugfBC_4core3ptr13drop_in_placeNtNtCs8dnTdrJsiec_5alloc6string6StringEBK_, symObjAddr: 0x0, symBinAddr: 0x1001293BC, symSize: 0x18 }
  - { offset: 0x19863C, size: 0x8, addend: 0x0, symName: __RNvMs4_NtCs8dnTdrJsiec_5alloc7raw_vecNtB5_11RawVecInner11finish_growB7_, symObjAddr: 0x3280, symBinAddr: 0x100135A04, symSize: 0x8C }
  - { offset: 0x1987FE, size: 0x8, addend: 0x0, symName: __RINvNvMs2_NtCs8dnTdrJsiec_5alloc7raw_vecINtB8_11RawVecInnerpE7reserve21do_reserve_and_handleNtNtBa_5alloc6GlobalEBa_, symObjAddr: 0x30, symBinAddr: 0x10013592C, symSize: 0x78 }
  - { offset: 0x198914, size: 0x8, addend: 0x0, symName: __RNvMs3_NtCs8dnTdrJsiec_5alloc7raw_vecINtB5_6RawVechE8grow_oneB7_, symObjAddr: 0x3220, symBinAddr: 0x1001359A4, symSize: 0x60 }
  - { offset: 0x198A27, size: 0x8, addend: 0x0, symName: __RNvNtCs8dnTdrJsiec_5alloc7raw_vec12handle_error, symObjAddr: 0x4110, symBinAddr: 0x100135AA8, symSize: 0x14 }
  - { offset: 0x198A6F, size: 0x8, addend: 0x0, symName: __RNvNtCs8dnTdrJsiec_5alloc7raw_vec17capacity_overflow, symObjAddr: 0x4124, symBinAddr: 0x100135ABC, symSize: 0x20 }
  - { offset: 0x198B8C, size: 0x8, addend: 0x0, symName: __RNvNtCs8dnTdrJsiec_5alloc5alloc18handle_alloc_error, symObjAddr: 0x40F8, symBinAddr: 0x100135A90, symSize: 0x18 }
  - { offset: 0x198C11, size: 0x8, addend: 0x0, symName: __RNvMNtCs8dnTdrJsiec_5alloc6stringNtB2_6String15from_utf8_lossy, symObjAddr: 0xD80, symBinAddr: 0x1001293D4, symSize: 0x230 }
  - { offset: 0x19926A, size: 0x8, addend: 0x0, symName: __RNvXsP_NtCs8dnTdrJsiec_5alloc6stringNtB5_6StringINtNtCs6sq8b9ugfBC_4core7convert4FromINtNtB7_6borrow3CoweEE4from, symObjAddr: 0x4BEC, symBinAddr: 0x100129970, symSize: 0x98 }
  - { offset: 0x1993C4, size: 0x8, addend: 0x0, symName: __RNvXsZ_NtCs8dnTdrJsiec_5alloc6stringNtB5_6StringNtNtCs6sq8b9ugfBC_4core3fmt5Write10write_char, symObjAddr: 0x4D30, symBinAddr: 0x100129A08, symSize: 0x114 }
  - { offset: 0x19957A, size: 0x8, addend: 0x0, symName: __RNvXsZ_NtCs8dnTdrJsiec_5alloc6stringNtB5_6StringNtNtCs6sq8b9ugfBC_4core3fmt5Write9write_str, symObjAddr: 0x4E44, symBinAddr: 0x100129B1C, symSize: 0x7C }
  - { offset: 0x199943, size: 0x8, addend: 0x0, symName: __RNvNtCs8dnTdrJsiec_5alloc4sync32arcinner_layout_for_value_layout, symObjAddr: 0x4084, symBinAddr: 0x10012971C, symSize: 0x74 }
  - { offset: 0x199A6C, size: 0x8, addend: 0x0, symName: __RNvXs0_NvXsf_NtNtCs8dnTdrJsiec_5alloc5boxed7convertINtBd_3BoxDNtNtCs6sq8b9ugfBC_4core5error5ErrorNtNtB12_6marker4SyncNtB1z_4SendEL_EINtNtB12_7convert4FromNtNtBf_6string6StringE4fromNtB5_11StringErrorNtNtB12_3fmt5Debug3fmt, symObjAddr: 0x44F0, symBinAddr: 0x10012994C, symSize: 0x10 }
  - { offset: 0x199B46, size: 0x8, addend: 0x0, symName: __RNvXs_NvXsf_NtNtCs8dnTdrJsiec_5alloc5boxed7convertINtBc_3BoxDNtNtCs6sq8b9ugfBC_4core5error5ErrorNtNtB11_6marker4SyncNtB1y_4SendEL_EINtNtB11_7convert4FromNtNtBe_6string6StringE4fromNtB4_11StringErrorNtNtB11_3fmt7Display3fmt, symObjAddr: 0x4FDC, symBinAddr: 0x100129CB4, symSize: 0x10 }
  - { offset: 0x199C30, size: 0x8, addend: 0x0, symName: __RNvMs_NtNtCs8dnTdrJsiec_5alloc3ffi5c_strNtB4_7CString19__from_vec_unchecked, symObjAddr: 0x3E28, symBinAddr: 0x100129604, symSize: 0x118 }
  - { offset: 0x199FE3, size: 0x8, addend: 0x0, symName: __RNvXs_NvMs_NtNtCs8dnTdrJsiec_5alloc3ffi5c_strNtB9_7CString3newRShNtB4_11SpecNewImpl13spec_new_impl, symObjAddr: 0x4EC0, symBinAddr: 0x100129B98, symSize: 0x11C }
  - { offset: 0x19A270, size: 0x8, addend: 0x0, symName: __RNvNvNtCs8dnTdrJsiec_5alloc3fmt6format12format_inner, symObjAddr: 0x41DC, symBinAddr: 0x100129790, symSize: 0x1BC }
  - { offset: 0x19A58D, size: 0x8, addend: 0x0, symName: __RINvNtCs6sq8b9ugfBC_4core3ptr13drop_in_placeNtNtCs8dnTdrJsiec_5alloc6string6StringEBK_, symObjAddr: 0x0, symBinAddr: 0x1001293BC, symSize: 0x18 }
  - { offset: 0x19A962, size: 0x8, addend: 0x0, symName: __RNvXsd_NtNtCs6sq8b9ugfBC_4core5alloc6layoutNtB5_11LayoutErrorNtNtB9_3fmt5Debug3fmt, symObjAddr: 0x4FEC, symBinAddr: 0x100129CC4, symSize: 0x14 }
  - { offset: 0x19AA13, size: 0x8, addend: 0x0, symName: __RNvYNtNtCs8dnTdrJsiec_5alloc6string6StringNtNtCs6sq8b9ugfBC_4core3fmt5Write9write_fmtB6_, symObjAddr: 0x5A50, symBinAddr: 0x100129CD8, symSize: 0x14 }
  - { offset: 0x19AA4A, size: 0x8, addend: 0x0, symName: __RNvXsK_NtCs6sq8b9ugfBC_4core3fmtNtB5_5ErrorNtB5_5Debug3fmt, symObjAddr: 0x4B40, symBinAddr: 0x10012995C, symSize: 0x14 }
  - { offset: 0x19AA9F, size: 0x8, addend: 0x0, symName: __RINvNtCs6sq8b9ugfBC_4core9panicking13assert_failedjjEB4_, symObjAddr: 0x28, symBinAddr: 0x100135ADC, symSize: 0x28 }
  - { offset: 0x19AABA, size: 0x8, addend: 0x0, symName: __RINvNtCs6sq8b9ugfBC_4core9panicking13assert_failedyyEB4_, symObjAddr: 0x50, symBinAddr: 0x100135B04, symSize: 0x28 }
  - { offset: 0x19AAE3, size: 0x8, addend: 0x0, symName: __RNvNtCs6sq8b9ugfBC_4core9panicking14panic_nounwind, symObjAddr: 0xB18C, symBinAddr: 0x100135BFC, symSize: 0x20 }
  - { offset: 0x19AB13, size: 0x8, addend: 0x0, symName: __RNvNtCs6sq8b9ugfBC_4core9panicking16panic_in_cleanup, symObjAddr: 0xB1E8, symBinAddr: 0x100135C1C, symSize: 0x18 }
  - { offset: 0x19AB2E, size: 0x8, addend: 0x0, symName: __RNvNtCs6sq8b9ugfBC_4core9panicking18panic_bounds_check, symObjAddr: 0xB200, symBinAddr: 0x100135C34, symSize: 0x38 }
  - { offset: 0x19AB5E, size: 0x8, addend: 0x0, symName: __RNvNtCs6sq8b9ugfBC_4core9panicking18panic_nounwind_fmt, symObjAddr: 0xB238, symBinAddr: 0x100135C6C, symSize: 0x30 }
  - { offset: 0x19ABA5, size: 0x8, addend: 0x0, symName: __RNvNtCs6sq8b9ugfBC_4core9panicking19assert_failed_inner, symObjAddr: 0xB268, symBinAddr: 0x100135C9C, symSize: 0xBC }
  - { offset: 0x19ABC0, size: 0x8, addend: 0x0, symName: __RNvNtCs6sq8b9ugfBC_4core9panicking19panic_cannot_unwind, symObjAddr: 0xB324, symBinAddr: 0x100135D58, symSize: 0x18 }
  - { offset: 0x19ABDB, size: 0x8, addend: 0x0, symName: __RNvNtCs6sq8b9ugfBC_4core9panicking26panic_nounwind_nobacktrace, symObjAddr: 0xB33C, symBinAddr: 0x100135D70, symSize: 0x20 }
  - { offset: 0x19AC0B, size: 0x8, addend: 0x0, symName: __RNvNtCs6sq8b9ugfBC_4core9panicking5panic, symObjAddr: 0xB3E8, symBinAddr: 0x100135D90, symSize: 0x14 }
  - { offset: 0x19AC3B, size: 0x8, addend: 0x0, symName: __RNvNtCs6sq8b9ugfBC_4core9panicking9panic_fmt, symObjAddr: 0xB3FC, symBinAddr: 0x100135DA4, symSize: 0x28 }
  - { offset: 0x19AC71, size: 0x8, addend: 0x0, symName: __RNvNtNtCs6sq8b9ugfBC_4core9panicking11panic_const23panic_const_div_by_zero, symObjAddr: 0xD184, symBinAddr: 0x100135E80, symSize: 0x1C }
  - { offset: 0x19AC8B, size: 0x8, addend: 0x0, symName: __RNvNtNtCs6sq8b9ugfBC_4core9panicking11panic_const23panic_const_rem_by_zero, symObjAddr: 0xD1BC, symBinAddr: 0x100135E9C, symSize: 0x1C }
  - { offset: 0x19AE4E, size: 0x8, addend: 0x0, symName: __RNvXs3_NtNtCs6sq8b9ugfBC_4core3num5errorNtB5_13ParseIntErrorNtNtB9_3fmt7Display3fmt, symObjAddr: 0x18150, symBinAddr: 0x10012E684, symSize: 0x28 }
  - { offset: 0x19AEE5, size: 0x8, addend: 0x0, symName: __RNvXs_NtNtCs6sq8b9ugfBC_4core3ops5rangeINtB4_5RangejENtNtB8_3fmt5Debug3fmtB8_, symObjAddr: 0x1B15C, symBinAddr: 0x10012ED98, symSize: 0x5C }
  - { offset: 0x19AF6B, size: 0x8, addend: 0x0, symName: __RNvMsa_NtCs6sq8b9ugfBC_4core3fmtNtB5_9Formatter10debug_list, symObjAddr: 0x7528, symBinAddr: 0x10012A70C, symSize: 0x48 }
  - { offset: 0x19AFAD, size: 0x8, addend: 0x0, symName: __RNvMsa_NtCs6sq8b9ugfBC_4core3fmtNtB5_9Formatter11debug_tuple, symObjAddr: 0x7570, symBinAddr: 0x10012A754, symSize: 0x50 }
  - { offset: 0x19AFFD, size: 0x8, addend: 0x0, symName: __RNvMsa_NtCs6sq8b9ugfBC_4core3fmtNtB5_9Formatter12debug_struct, symObjAddr: 0x75C0, symBinAddr: 0x10012A7A4, symSize: 0x3C }
  - { offset: 0x19B04C, size: 0x8, addend: 0x0, symName: __RNvMsa_NtCs6sq8b9ugfBC_4core3fmtNtB5_9Formatter12pad_integral, symObjAddr: 0x75FC, symBinAddr: 0x10012A7E0, symSize: 0x3B0 }
  - { offset: 0x19B3AF, size: 0x8, addend: 0x0, symName: __RNvMsa_NtCs6sq8b9ugfBC_4core3fmtNtB5_9Formatter25debug_tuple_field1_finish, symObjAddr: 0x7E4C, symBinAddr: 0x10012AB90, symSize: 0x168 }
  - { offset: 0x19B5C3, size: 0x8, addend: 0x0, symName: __RNvMsa_NtCs6sq8b9ugfBC_4core3fmtNtB5_9Formatter25debug_tuple_field2_finish, symObjAddr: 0x7FB4, symBinAddr: 0x10012ACF8, symSize: 0x1D8 }
  - { offset: 0x19B8E1, size: 0x8, addend: 0x0, symName: __RNvMsa_NtCs6sq8b9ugfBC_4core3fmtNtB5_9Formatter26debug_struct_field1_finish, symObjAddr: 0x8D40, symBinAddr: 0x10012AED0, symSize: 0xD0 }
  - { offset: 0x19B9B9, size: 0x8, addend: 0x0, symName: __RNvMsa_NtCs6sq8b9ugfBC_4core3fmtNtB5_9Formatter26debug_struct_field2_finish, symObjAddr: 0x8E10, symBinAddr: 0x10012AFA0, symSize: 0x104 }
  - { offset: 0x19BA98, size: 0x8, addend: 0x0, symName: __RNvMsa_NtCs6sq8b9ugfBC_4core3fmtNtB5_9Formatter3pad, symObjAddr: 0x9424, symBinAddr: 0x10012B0A4, symSize: 0x310 }
  - { offset: 0x19BDC4, size: 0x8, addend: 0x0, symName: __RNvMsa_NtCs6sq8b9ugfBC_4core3fmtNtB5_9Formatter9write_str, symObjAddr: 0x97E0, symBinAddr: 0x10012B3B4, symSize: 0x10 }
  - { offset: 0x19BF39, size: 0x8, addend: 0x0, symName: __RNvXNtNtNtCs6sq8b9ugfBC_4core3fmt3num3imphNtB6_7Display3fmt, symObjAddr: 0x122AC, symBinAddr: 0x10012D440, symSize: 0xB0 }
  - { offset: 0x19C035, size: 0x8, addend: 0x0, symName: __RNvXs8_NtNtNtCs6sq8b9ugfBC_4core3fmt3num3impmNtB9_7Display3fmt, symObjAddr: 0x19420, symBinAddr: 0x10012E79C, symSize: 0x130 }
  - { offset: 0x19C176, size: 0x8, addend: 0x0, symName: __RNvXs9_NtNtNtCs6sq8b9ugfBC_4core3fmt3num3implNtB9_7Display3fmt, symObjAddr: 0x19748, symBinAddr: 0x10012E8CC, symSize: 0x138 }
  - { offset: 0x19C299, size: 0x8, addend: 0x0, symName: __RNvXsd_NtNtNtCs6sq8b9ugfBC_4core3fmt3num3impyNtB9_7Display3fmt, symObjAddr: 0x1C840, symBinAddr: 0x10012EE38, symSize: 0x13C }
  - { offset: 0x19C3B3, size: 0x8, addend: 0x0, symName: __RNvXs6_NtNtCs6sq8b9ugfBC_4core3fmt3numjNtB7_8LowerHex3fmt, symObjAddr: 0x18AD8, symBinAddr: 0x10012E6AC, symSize: 0x70 }
  - { offset: 0x19C42A, size: 0x8, addend: 0x0, symName: __RNvXsu_NtNtCs6sq8b9ugfBC_4core3fmt3nummNtB7_8LowerHex3fmt, symObjAddr: 0x1E20C, symBinAddr: 0x10012F588, symSize: 0x74 }
  - { offset: 0x19C4A1, size: 0x8, addend: 0x0, symName: __RNvXsv_NtNtCs6sq8b9ugfBC_4core3fmt3numlNtB7_8LowerHex3fmt, symObjAddr: 0x1E298, symBinAddr: 0x10012F5FC, symSize: 0x74 }
  - { offset: 0x19C52E, size: 0x8, addend: 0x0, symName: __RNvXsw_NtNtCs6sq8b9ugfBC_4core3fmt3nummNtB7_8UpperHex3fmt, symObjAddr: 0x1E330, symBinAddr: 0x10012F670, symSize: 0x74 }
  - { offset: 0x19C5A5, size: 0x8, addend: 0x0, symName: __RNvXsx_NtNtCs6sq8b9ugfBC_4core3fmt3numlNtB7_8UpperHex3fmt, symObjAddr: 0x1E3C4, symBinAddr: 0x10012F6E4, symSize: 0x74 }
  - { offset: 0x19C65A, size: 0x8, addend: 0x0, symName: __RNvXs8_NtNtCs6sq8b9ugfBC_4core3fmt3numjNtB7_8UpperHex3fmt, symObjAddr: 0x19134, symBinAddr: 0x10012E72C, symSize: 0x70 }
  - { offset: 0x19C6D1, size: 0x8, addend: 0x0, symName: __RNvXse_NtNtCs6sq8b9ugfBC_4core3fmt3numhNtB7_8LowerHex3fmt, symObjAddr: 0x1CA4C, symBinAddr: 0x10012EF74, symSize: 0x74 }
  - { offset: 0x19C748, size: 0x8, addend: 0x0, symName: __RNvXsg_NtNtCs6sq8b9ugfBC_4core3fmt3numhNtB7_8UpperHex3fmt, symObjAddr: 0x1CE18, symBinAddr: 0x10012EFE8, symSize: 0x74 }
  - { offset: 0x19C7B2, size: 0x8, addend: 0x0, symName: __RNvXsX_NtNtCs6sq8b9ugfBC_4core3fmt3numyNtB7_5Debug3fmt, symObjAddr: 0x1AA5C, symBinAddr: 0x10012EA04, symSize: 0x1C4 }
  - { offset: 0x19C92D, size: 0x8, addend: 0x0, symName: __RNvXsZ_NtNtCs6sq8b9ugfBC_4core3fmt3numjNtB7_5Debug3fmt, symObjAddr: 0x1AD24, symBinAddr: 0x10012EBC8, symSize: 0x1D0 }
  - { offset: 0x19CB69, size: 0x8, addend: 0x0, symName: __RNvMs1_NtNtCs6sq8b9ugfBC_4core3fmt8buildersNtB5_11DebugStruct5field, symObjAddr: 0x4BCC, symBinAddr: 0x100129F78, symSize: 0x1B4 }
  - { offset: 0x19CD8E, size: 0x8, addend: 0x0, symName: __RNvMs1_NtNtCs6sq8b9ugfBC_4core3fmt8buildersNtB5_11DebugStruct6finish, symObjAddr: 0x4D80, symBinAddr: 0x10012A12C, symSize: 0x7C }
  - { offset: 0x19CE99, size: 0x8, addend: 0x0, symName: __RNvMs2_NtNtCs6sq8b9ugfBC_4core3fmt8buildersNtB5_10DebugTuple5field, symObjAddr: 0x5050, symBinAddr: 0x10012A1A8, symSize: 0x148 }
  - { offset: 0x19D028, size: 0x8, addend: 0x0, symName: __RNvMs2_NtNtCs6sq8b9ugfBC_4core3fmt8buildersNtB5_10DebugTuple6finish, symObjAddr: 0x5198, symBinAddr: 0x10012A2F0, symSize: 0xB4 }
  - { offset: 0x19D0EC, size: 0x8, addend: 0x0, symName: __RNvMs4_NtNtCs6sq8b9ugfBC_4core3fmt8buildersNtB5_8DebugSet5entry, symObjAddr: 0x603C, symBinAddr: 0x10012A578, symSize: 0x148 }
  - { offset: 0x19D2E4, size: 0x8, addend: 0x0, symName: __RNvMs5_NtNtCs6sq8b9ugfBC_4core3fmt8buildersNtB5_9DebugList6finish, symObjAddr: 0x6298, symBinAddr: 0x10012A6C0, symSize: 0x4C }
  - { offset: 0x19D373, size: 0x8, addend: 0x0, symName: __RNvXs0_NtNtCs6sq8b9ugfBC_4core3fmt8buildersNtB5_10PadAdapterNtB7_5Write10write_char, symObjAddr: 0x12470, symBinAddr: 0x10012D4F0, symSize: 0x80 }
  - { offset: 0x19D39D, size: 0x8, addend: 0x0, symName: __RNvXs0_NtNtCs6sq8b9ugfBC_4core3fmt8buildersNtB5_10PadAdapterNtB7_5Write9write_str, symObjAddr: 0x124F0, symBinAddr: 0x10012D570, symSize: 0x240 }
  - { offset: 0x19D750, size: 0x8, addend: 0x0, symName: __RNvNvMsa_NtCs6sq8b9ugfBC_4core3fmtNtB7_9Formatter12pad_integral12write_prefix, symObjAddr: 0x113F8, symBinAddr: 0x10012D3C4, symSize: 0x7C }
  - { offset: 0x19D798, size: 0x8, addend: 0x0, symName: __RNvXs1g_NtCs6sq8b9ugfBC_4core3fmtRDNtB6_5DebugEL_Bx_3fmtB8_, symObjAddr: 0x14FE8, symBinAddr: 0x10012DAD4, symSize: 0x10 }
  - { offset: 0x19D7BA, size: 0x8, addend: 0x0, symName: __RNvXs1g_NtCs6sq8b9ugfBC_4core3fmtRjNtB6_5Debug3fmtB8_, symObjAddr: 0x1522C, symBinAddr: 0x10012DAE4, symSize: 0x8 }
  - { offset: 0x19D7CE, size: 0x8, addend: 0x0, symName: __RNvXs1g_NtCs6sq8b9ugfBC_4core3fmtRyNtB6_5Debug3fmtB8_, symObjAddr: 0x15234, symBinAddr: 0x10012DAEC, symSize: 0xC }
  - { offset: 0x19D7EA, size: 0x8, addend: 0x0, symName: __RNvNtCs6sq8b9ugfBC_4core3fmt17pointer_fmt_inner, symObjAddr: 0xA8D0, symBinAddr: 0x10012BC4C, symSize: 0xB0 }
  - { offset: 0x19D8E5, size: 0x8, addend: 0x0, symName: __RNvNtCs6sq8b9ugfBC_4core3fmt5write, symObjAddr: 0xA980, symBinAddr: 0x10012BCFC, symSize: 0x1B4 }
  - { offset: 0x19DB8C, size: 0x8, addend: 0x0, symName: __RNvXsb_NtCs6sq8b9ugfBC_4core3fmtNtB5_9FormatterNtB5_5Write10write_char, symObjAddr: 0x1BD50, symBinAddr: 0x10012EDF4, symSize: 0x10 }
  - { offset: 0x19DBB5, size: 0x8, addend: 0x0, symName: __RNvXsi_NtCs6sq8b9ugfBC_4core3fmteNtB5_7Display3fmt, symObjAddr: 0x1D288, symBinAddr: 0x10012F3E4, symSize: 0x14 }
  - { offset: 0x19DBDE, size: 0x8, addend: 0x0, symName: __RNvXs1i_NtCs6sq8b9ugfBC_4core3fmtReNtB6_7Display3fmtB8_, symObjAddr: 0x1525C, symBinAddr: 0x10012DAF8, symSize: 0x10 }
  - { offset: 0x19DC25, size: 0x8, addend: 0x0, symName: __RNvXsj_NtCs6sq8b9ugfBC_4core3fmtcNtB5_5Debug3fmt, symObjAddr: 0x1D310, symBinAddr: 0x10012F3F8, symSize: 0xA8 }
  - { offset: 0x19DD48, size: 0x8, addend: 0x0, symName: __RNvYNtNtNtCs6sq8b9ugfBC_4core3fmt8builders10PadAdapterNtB6_5Write9write_fmtB8_, symObjAddr: 0x1E9BC, symBinAddr: 0x10012F758, symSize: 0x14 }
  - { offset: 0x19DD8D, size: 0x8, addend: 0x0, symName: __RNvXs8_NtCs6sq8b9ugfBC_4core3fmtNtB5_9ArgumentsNtB5_7Display3fmt, symObjAddr: 0x190A8, symBinAddr: 0x10012E71C, symSize: 0x10 }
  - { offset: 0x19DDCB, size: 0x8, addend: 0x0, symName: __RNvXsh_NtCs6sq8b9ugfBC_4core3fmteNtB5_5Debug3fmt, symObjAddr: 0x1CE8C, symBinAddr: 0x10012F05C, symSize: 0x388 }
  - { offset: 0x19E2B6, size: 0x8, addend: 0x0, symName: __RNvXsk_NtCs6sq8b9ugfBC_4core3fmtcNtB5_7Display3fmt, symObjAddr: 0x1DADC, symBinAddr: 0x10012F4A0, symSize: 0xD4 }
  - { offset: 0x19E4D6, size: 0x8, addend: 0x0, symName: __RNvNtNtCs6sq8b9ugfBC_4core5slice5index16slice_index_fail, symObjAddr: 0xCB70, symBinAddr: 0x100135DCC, symSize: 0xB4 }
  - { offset: 0x19E856, size: 0x8, addend: 0x0, symName: __RNvNtNtCs6sq8b9ugfBC_4core5slice6memchr14memchr_aligned, symObjAddr: 0xCC24, symBinAddr: 0x10012CE50, symSize: 0xDC }
  - { offset: 0x19E86E, size: 0x8, addend: 0x0, symName: __RNvNtNtCs6sq8b9ugfBC_4core5slice6memchr14memchr_aligned, symObjAddr: 0xCC24, symBinAddr: 0x10012CE50, symSize: 0xDC }
  - { offset: 0x19E884, size: 0x8, addend: 0x0, symName: __RNvNtNtCs6sq8b9ugfBC_4core5slice6memchr14memchr_aligned, symObjAddr: 0xCC24, symBinAddr: 0x10012CE50, symSize: 0xDC }
  - { offset: 0x19E899, size: 0x8, addend: 0x0, symName: __RNvNtNtCs6sq8b9ugfBC_4core5slice6memchr14memchr_aligned, symObjAddr: 0xCC24, symBinAddr: 0x10012CE50, symSize: 0xDC }
  - { offset: 0x19E8AF, size: 0x8, addend: 0x0, symName: __RNvNtNtCs6sq8b9ugfBC_4core5slice6memchr14memchr_aligned, symObjAddr: 0xCC24, symBinAddr: 0x10012CE50, symSize: 0xDC }
  - { offset: 0x19E9CE, size: 0x8, addend: 0x0, symName: __RNvNtNtNtNtCs6sq8b9ugfBC_4core5slice4sort6shared9smallsort22panic_on_ord_violation, symObjAddr: 0xEFA4, symBinAddr: 0x100135EB8, symSize: 0x20 }
  - { offset: 0x19E9F7, size: 0x8, addend: 0x0, symName: __RNvNtNtNtNtCs6sq8b9ugfBC_4core5slice4sort6stable5drift11sqrt_approx, symObjAddr: 0xEFC4, symBinAddr: 0x10012D398, symSize: 0x2C }
  - { offset: 0x19EAB3, size: 0x8, addend: 0x0, symName: __RNvNvNtCs6sq8b9ugfBC_4core5slice20copy_from_slice_impl17len_mismatch_fail, symObjAddr: 0x11474, symBinAddr: 0x100135ED8, symSize: 0x38 }
  - { offset: 0x19EB54, size: 0x8, addend: 0x0, symName: __RNvXs2_NtNtCs6sq8b9ugfBC_4core5slice5asciiNtB5_11EscapeAsciiNtNtB9_3fmt7Display3fmt, symObjAddr: 0x17578, symBinAddr: 0x10012DF40, symSize: 0x23C }
  - { offset: 0x19F140, size: 0x8, addend: 0x0, symName: __RNvNtCs6sq8b9ugfBC_4core6option13expect_failed, symObjAddr: 0xB0F8, symBinAddr: 0x100135B68, symSize: 0x30 }
  - { offset: 0x19F172, size: 0x8, addend: 0x0, symName: __RNvNtCs6sq8b9ugfBC_4core6option13unwrap_failed, symObjAddr: 0xB128, symBinAddr: 0x100135B98, symSize: 0x1C }
  - { offset: 0x19F256, size: 0x8, addend: 0x0, symName: __RNvMNtNtCs6sq8b9ugfBC_4core4char7methodsc16escape_debug_ext, symObjAddr: 0x3468, symBinAddr: 0x100129CEC, symSize: 0x28C }
  - { offset: 0x19F4EE, size: 0x8, addend: 0x0, symName: __RNvXsc_NtCs6sq8b9ugfBC_4core4charNtB5_11EscapeDebugNtNtB7_3fmt7Display3fmt, symObjAddr: 0x1BECC, symBinAddr: 0x10012EE04, symSize: 0x34 }
  - { offset: 0x19F720, size: 0x8, addend: 0x0, symName: __RNvNtCs6sq8b9ugfBC_4core6result13unwrap_failed, symObjAddr: 0xB144, symBinAddr: 0x100135BB4, symSize: 0x48 }
  - { offset: 0x19F748, size: 0x8, addend: 0x0, symName: __RNvNtNtCs6sq8b9ugfBC_4core3str8converts9from_utf8, symObjAddr: 0xC8DC, symBinAddr: 0x10012CBDC, symSize: 0x274 }
  - { offset: 0x19F766, size: 0x8, addend: 0x0, symName: __RNvNtNtCs6sq8b9ugfBC_4core3str8converts9from_utf8, symObjAddr: 0xC8DC, symBinAddr: 0x10012CBDC, symSize: 0x274 }
  - { offset: 0x19F9C1, size: 0x8, addend: 0x0, symName: __RNvNtNtCs6sq8b9ugfBC_4core3str5count14do_count_chars, symObjAddr: 0xBCAC, symBinAddr: 0x10012C220, symSize: 0x714 }
  - { offset: 0x19FDFF, size: 0x8, addend: 0x0, symName: __RNvNtNtCs6sq8b9ugfBC_4core3str5count23char_count_general_case, symObjAddr: 0xC3C0, symBinAddr: 0x10012C934, symSize: 0x2A8 }
  - { offset: 0x19FF18, size: 0x8, addend: 0x0, symName: __RNvMsu_NtNtCs6sq8b9ugfBC_4core3str7patternNtB5_11StrSearcher3new, symObjAddr: 0xA048, symBinAddr: 0x10012B3C4, symSize: 0x888 }
  - { offset: 0x1A01F6, size: 0x8, addend: 0x0, symName: __RNvNtCs6sq8b9ugfBC_4core3str16slice_error_fail, symObjAddr: 0xAB68, symBinAddr: 0x100135B2C, symSize: 0xC }
  - { offset: 0x1A02F3, size: 0x8, addend: 0x0, symName: __RNvNtCs6sq8b9ugfBC_4core3str19slice_error_fail_rt, symObjAddr: 0xAB90, symBinAddr: 0x10012BEB0, symSize: 0x370 }
  - { offset: 0x1A0563, size: 0x8, addend: 0x0, symName: __RNvXs0_NtNtCs6sq8b9ugfBC_4core3str5lossyNtB5_5DebugNtNtB9_3fmt5Debug3fmt, symObjAddr: 0x12C64, symBinAddr: 0x10012D7B0, symSize: 0x31C }
  - { offset: 0x1A08C2, size: 0x8, addend: 0x0, symName: __RNvXs2_NtNtCs6sq8b9ugfBC_4core3str5lossyNtB5_10Utf8ChunksNtNtNtNtB9_4iter6traits8iterator8Iterator4next, symObjAddr: 0x173B8, symBinAddr: 0x10012DD80, symSize: 0x1C0 }
  - { offset: 0x1A0D01, size: 0x8, addend: 0x0, symName: __RNvNtNtNtCs6sq8b9ugfBC_4core7unicode12unicode_data15grapheme_extend11lookup_slow, symObjAddr: 0xE274, symBinAddr: 0x10012D290, symSize: 0x108 }
  - { offset: 0x1A0EE7, size: 0x8, addend: 0x0, symName: __RNvNtNtCs6sq8b9ugfBC_4core7unicode9printable12is_printable, symObjAddr: 0xCE20, symBinAddr: 0x10012CF2C, symSize: 0x364 }
  - { offset: 0x1A17C7, size: 0x8, addend: 0x0, symName: __RNvMs3_NtNtCs6sq8b9ugfBC_4core3ffi5c_strNtB5_4CStr19from_bytes_with_nul, symObjAddr: 0x5D34, symBinAddr: 0x10012A3A4, symSize: 0xF0 }
  - { offset: 0x1A17E6, size: 0x8, addend: 0x0, symName: __RNvMs3_NtNtCs6sq8b9ugfBC_4core3ffi5c_strNtB5_4CStr19from_bytes_with_nul, symObjAddr: 0x5D34, symBinAddr: 0x10012A3A4, symSize: 0xF0 }
  - { offset: 0x1A18D1, size: 0x8, addend: 0x0, symName: __RNvMs3_NtNtCs6sq8b9ugfBC_4core3ffi5c_strNtB5_4CStr20from_bytes_until_nul, symObjAddr: 0x5E24, symBinAddr: 0x10012A494, symSize: 0xDC }
  - { offset: 0x1A19E1, size: 0x8, addend: 0x0, symName: __RNvMs3_NtNtCs6sq8b9ugfBC_4core3ffi5c_strNtB5_4CStr6to_str, symObjAddr: 0x5F00, symBinAddr: 0x10012A570, symSize: 0x8 }
  - { offset: 0x1A1A00, size: 0x8, addend: 0x0, symName: __RNvMs3_NtNtCs6sq8b9ugfBC_4core3ffi5c_strNtB5_4CStr6to_str, symObjAddr: 0x5F00, symBinAddr: 0x10012A570, symSize: 0x8 }
  - { offset: 0x1A1A28, size: 0x8, addend: 0x0, symName: __RNvXs1_NtNtCs6sq8b9ugfBC_4core3ffi5c_strNtB5_4CStrNtNtB9_3fmt5Debug3fmt, symObjAddr: 0x145D0, symBinAddr: 0x10012DACC, symSize: 0x8 }
  - { offset: 0x1A1A46, size: 0x8, addend: 0x0, symName: __RNvXs1_NtNtCs6sq8b9ugfBC_4core3ffi5c_strNtB5_4CStrNtNtB9_3fmt5Debug3fmt, symObjAddr: 0x145D0, symBinAddr: 0x10012DACC, symSize: 0x8 }
  - { offset: 0x1A1A8A, size: 0x8, addend: 0x0, symName: __RNvNtCs6sq8b9ugfBC_4core4cell22panic_already_borrowed, symObjAddr: 0xAF00, symBinAddr: 0x100135B38, symSize: 0x30 }
  - { offset: 0x1A1AD8, size: 0x8, addend: 0x0, symName: __RNvXsr_NtCs6sq8b9ugfBC_4core4cellNtB5_14BorrowMutErrorNtNtB7_3fmt7Display3fmt, symObjAddr: 0x1E03C, symBinAddr: 0x10012F574, symSize: 0x14 }
  - { offset: 0x1A1B6E, size: 0x8, addend: 0x0, symName: __RNvXs3_NtCs6sq8b9ugfBC_4core5asciiNtB5_13EscapeDefaultNtNtB7_3fmt7Display3fmt, symObjAddr: 0x1807C, symBinAddr: 0x10012E664, symSize: 0x20 }
  - { offset: 0x1A1C5F, size: 0x8, addend: 0x0, symName: __RNvXs2_NtCs6sq8b9ugfBC_4core4bstrNtB5_7ByteStrNtNtB7_3fmt5Debug3fmt, symObjAddr: 0x16938, symBinAddr: 0x10012DB08, symSize: 0x278 }
  - { offset: 0x1A1F33, size: 0x8, addend: 0x0, symName: __RNvXs3_NtCs6sq8b9ugfBC_4core4bstrNtB5_7ByteStrNtNtB7_3fmt7Display3fmt, symObjAddr: 0x17B94, symBinAddr: 0x10012E17C, symSize: 0x4E8 }
...
